Archive member included to satisfy reference by file (symbol)

c:/program files/microchip/xc32/v4.00/bin/bin/../../lib/gcc/pic32c/8.3.1/../../../../pic32c/lib/thumb/v7e-m+fp/hard\libpic32c.a(data_init.o)
                              build/Artemis_PDU/production/_ext/974488028/startup_xc32.o (__pic32c_data_initialization)
c:/program files/microchip/xc32/v4.00/bin/bin/../../lib/gcc/pic32c/8.3.1/../../../../pic32c/lib/thumb/v7e-m+fp/hard\libc-musl.a(__libc_start_main.o)
                              build/Artemis_PDU/production/_ext/974488028/startup_xc32.o (__libc_init_array)
c:/program files/microchip/xc32/v4.00/bin/bin/../../lib/gcc/pic32c/8.3.1/../../../../pic32c/lib/thumb/v7e-m+fp/hard\libc-musl.a(libc.o)
                              c:/program files/microchip/xc32/v4.00/bin/bin/../../lib/gcc/pic32c/8.3.1/../../../../pic32c/lib/thumb/v7e-m+fp/hard\libc-musl.a(__libc_start_main.o) (__progname_full)
c:/program files/microchip/xc32/v4.00/bin/bin/../../lib/gcc/pic32c/8.3.1/../../../../pic32c/lib/thumb/v7e-m+fp/hard\libc-musl.a(memcmp.o)
                              build/Artemis_PDU/production/_ext/1760076532/drv_sdspi.o (memcmp)
c:/program files/microchip/xc32/v4.00/bin/bin/../../lib/gcc/pic32c/8.3.1/../../../../pic32c/lib/thumb/v7e-m+fp/hard\libc-musl.a(memcpy.o)
                              build/Artemis_PDU/production/_ext/236948536/plib_nvmctrl.o (memcpy)
c:/program files/microchip/xc32/v4.00/bin/bin/../../lib/gcc/pic32c/8.3.1/../../../../pic32c/lib/thumb/v7e-m+fp/hard\libc-musl.a(memset.o)
                              build/Artemis_PDU/production/_ext/1111598889/sys_fs.o (memset)
c:/program files/microchip/xc32/v4.00/bin/bin/../../lib/gcc/pic32c/8.3.1/../../../../pic32c/lib/thumb/v7e-m+fp/hard\libc-musl.a(strlen.o)
                              build/Artemis_PDU/production/_ext/1111598889/sys_fs.o (strlen)
c:/program files/microchip/xc32/v4.00/bin/bin/../../lib/gcc/pic32c/8.3.1/../../../../pic32c/lib/thumb/v7e-m+fp/hard\libc-musl.a(strstr.o)
                              build/Artemis_PDU/production/_ext/1360937237/app.o (strstr)
c:/program files/microchip/xc32/v4.00/bin/bin/../../lib/gcc/pic32c/8.3.1/../../../../pic32c/lib/thumb/v7e-m+fp/hard\libc-musl.a(strcmp.o)
                              build/Artemis_PDU/production/_ext/1111598889/sys_fs_media_manager.o (strcmp)
c:/program files/microchip/xc32/v4.00/bin/bin/../../lib/gcc/pic32c/8.3.1/../../../../pic32c/lib/thumb/v7e-m+fp/hard\libc-musl.a(strcpy.o)
                              build/Artemis_PDU/production/_ext/1111598889/sys_fs.o (strcpy)
c:/program files/microchip/xc32/v4.00/bin/bin/../../lib/gcc/pic32c/8.3.1/../../../../pic32c/lib/thumb/v7e-m+fp/hard\libc-musl.a(strncmp.o)
                              build/Artemis_PDU/production/_ext/1111598889/sys_fs.o (strncmp)
c:/program files/microchip/xc32/v4.00/bin/bin/../../lib/gcc/pic32c/8.3.1/../../../../pic32c/lib/thumb/v7e-m+fp/hard\libc-musl.a(__environ.o)
                              c:/program files/microchip/xc32/v4.00/bin/bin/../../lib/gcc/pic32c/8.3.1/../../../../pic32c/lib/thumb/v7e-m+fp/hard\libc-musl.a(__libc_start_main.o) (__environ)
c:/program files/microchip/xc32/v4.00/bin/bin/../../lib/gcc/pic32c/8.3.1/../../../../pic32c/lib/thumb/v7e-m+fp/hard\libc-musl.a(stpcpy.o)
                              c:/program files/microchip/xc32/v4.00/bin/bin/../../lib/gcc/pic32c/8.3.1/../../../../pic32c/lib/thumb/v7e-m+fp/hard\libc-musl.a(strcpy.o) (__stpcpy)
c:/program files/microchip/xc32/v4.00/bin/bin/../../lib/gcc/pic32c/8.3.1/thumb/v7e-m+fp/hard\libgcc.a(_aeabi_uldivmod.o)
                              build/Artemis_PDU/production/_ext/1679430495/plib_sercom3_usart.o (__aeabi_uldivmod)
c:/program files/microchip/xc32/v4.00/bin/bin/../../lib/gcc/pic32c/8.3.1/thumb/v7e-m+fp/hard\libgcc.a(_udivmoddi4.o)
                              c:/program files/microchip/xc32/v4.00/bin/bin/../../lib/gcc/pic32c/8.3.1/thumb/v7e-m+fp/hard\libgcc.a(_aeabi_uldivmod.o) (__udivmoddi4)
c:/program files/microchip/xc32/v4.00/bin/bin/../../lib/gcc/pic32c/8.3.1/thumb/v7e-m+fp/hard\libgcc.a(_dvmd_tls.o)
                              c:/program files/microchip/xc32/v4.00/bin/bin/../../lib/gcc/pic32c/8.3.1/thumb/v7e-m+fp/hard\libgcc.a(_aeabi_uldivmod.o) (__aeabi_ldiv0)

Microchip PIC32 Memory-Usage Report

ROM Program-Memory Usage
section                    address  length [bytes]      (dec)  Description
-------                 ----------  -------------------------  -----------
.vectors                         0          0x260         608   
.text                        0x260           0x20          32  App's exec code 
.ARM.exidx                   0x280            0x8           8   
.text.f_mkfs                 0x288          0x808        2056   
.text.DRV_SDSPI_Tasks        0xa90          0x6a0        1696   
.dinit                      0x1130          0x400        1024   
.text.SYS_FS_MEDIA_MANA     0x1530          0x3f8        1016   
.text.follow_path           0x1928          0x3ac         940   
.text.mount_volume          0x1cd4          0x398         920   
.text._DRV_SDSPI_SetupX     0x206c          0x338         824   
.text.f_printf              0x23a4          0x320         800   
.text                       0x26c4          0x2d0         720  App's exec code 
.text.dir_register          0x2994          0x2b8         696   
.text.f_open                0x2c4c          0x244         580   
.rodata.cvt1.8193           0x2e90          0x1f4         500   
.text.xTaskCreate           0x3084          0x1e4         484   
.text.dir_find              0x3268          0x1d8         472   
.text.f_write               0x3440          0x1c6         454   
.text.EVSYS_Initialize      0x3606            0x2           2   
.text.read_CMD              0x3608          0x1c0         448   
.text.f_read                0x37c8          0x198         408   
.text.f_lseek               0x3960          0x192         402   
.text.Dummy_Handler         0x3af2            0x2           2   
.rodata                     0x3af4          0x18c         396  Read-only const 
.text.create_partition      0x3c80          0x188         392   
.text.SYS_FS_MEDIA_MANA     0x3e08          0x188         392   
.text.f_setlabel            0x3f90          0x17c         380   
.text.SERCOM2_SPI_Inter     0x410c          0x170         368   
.text._DRV_SDSPI_Comman     0x427c          0x164         356   
.text.get_fileinfo          0x43e0          0x164         356   
.text.xQueueSemaphoreTa     0x4544          0x154         340   
.text.DRV_SPI_WriteRead     0x4698          0x14c         332   
.text.dir_read              0x47e4          0x138         312   
.text.f_getcwd              0x491c          0x138         312   
.text.SERCOM2_SPI_Write     0x4a54          0x130         304   
.text.put_fat               0x4b84          0x12c         300   
.text.f_rename              0x4cb0          0x126         294   
.text.NonMaskableInt_Ha     0x4dd6            0x2           2   
.text.xQueueGenericSend     0x4dd8          0x124         292   
.text.create_chain          0x4efc          0x11e         286   
.text.f_mkdir               0x501a          0x116         278   
.text.CLOCK_Initialize      0x5130          0x114         276   
.text.xTaskIncrementTic     0x5244          0x114         276   
.rodata.uc437               0x5358          0x100         256   
.text.DRV_SDSPI_Initial     0x5458           0xfc         252   
.text.PORT_Initialize       0x5554           0xf4         244   
.text.check_fs              0x5648           0xf0         240   
.text.DRV_SPI_Open          0x5738           0xe8         232   
.text.DRV_SDSPI_Open        0x5820           0xe4         228   
.text.xTaskResumeAll        0x5904           0xe4         228   
.text.f_getfree             0x59e8           0xd8         216   
.text.get_fat               0x5ac0           0xd0         208   
.text.f_unlink              0x5b90           0xcc         204   
.text.dir_next              0x5c5c           0xc8         200   
.text.SYS_TIME_PLIBCall     0x5d24           0xc4         196   
.text.f_truncate            0x5de8           0xc2         194   
.text.HardFault_Handler     0x5eaa            0x2           2   
.rodata.cvt2.8194           0x5eac           0xbc         188   
.text.DRV_SPI_Initializ     0x5f68           0xb4         180   
.text.ff_wtoupper           0x601c           0xb4         180   
.text.dir_sdi               0x60d0           0xb0         176   
.text.SYS_TIME_TimerObj     0x6180           0xb0         176   
.text.vTaskSwitchContex     0x6230           0xa8         168   
.text.xTaskPriorityInhe     0x62d8           0xa8         168   
.text.enableGPIOs           0x6380           0xa8         168   
.text.disableGPIOs          0x6428           0xa8         168   
.text.f_getlabel            0x64d0           0xa2         162   
.text.DebugMonitor_Hand     0x6572            0x2           2   
.rodata.gDrvSDSPICmdTab     0x6574           0xa0         160   
.text.f_sync                0x6614           0x9c         156   
.text.FATFS_unmount         0x66b0           0x9c         156   
.text.SERCOM4_I2C_Inter     0x674c           0x98         152   
.text.SERCOM2_SPI_Trans     0x67e4           0x98         152   
.text.prvAddCurrentTask     0x687c           0x98         152   
.text.remove_chain          0x6914           0x94         148   
.text._DRV_SDSPI_ReadRe     0x69a8           0x92         146   
.text.f_opendir             0x6a3a           0x92         146   
.text.Reset_Handler         0x6acc           0x90         144   
.text.sync_fs               0x6b5c           0x8c         140   
.rodata.FatFsFunctions      0x6be8           0x88         136   
.text.__pic32c_data_ini     0x6c70           0x88         136   
.text.DRV_SPI_Lock          0x6cf8           0x84         132   
.text.NVIC_Initialize       0x6d7c           0x84         132   
.text.SYS_TIME_AddToLis     0x6e00           0x84         132   
.rodata.ExCvt               0x6e84           0x80         128   
.text.xTaskPriorityDisi     0x6f04           0x80         128   
.text.vTaskPriorityDisi     0x6f84           0x80         128   
.text.DRV_SPI_TransferS     0x7004           0x7e         126   
.text.prvUnlockQueue        0x7082           0x7e         126   
.text.FATFS_mount           0x7100           0x7c         124   
.text.FATFS_APP             0x717c           0x7c         124   
.text.prvCopyDataToQueu     0x71f8           0x76         118   
.text.MemoryManagement_     0x726e            0x2           2   
.text.inc_lock              0x7270           0x74         116   
.text.xTaskRemoveFromEv     0x72e4           0x74         116   
.text.SYS_FS_Initialize     0x7358           0x70         112   
.text.SYS_TIME_Initiali     0x73c8           0x70         112   
.text.xQueueGenericRese     0x7438           0x70         112   
.text.prvIdleTask           0x74a8           0x70         112   
.text.pvPortMalloc          0x7518           0x6c         108   
.text.SYS_Initialize        0x7584           0x68         104   
.text.f_mount               0x75ec           0x64         100   
.text.SYS_Tasks             0x7650           0x64         100   
.text._DRV_SDSPI_SPIBlo     0x76b4            0xc          12   
.text.xPortPendSVHandle     0x76c0           0x64         100   
.text.xQueueGiveFromISR     0x7724           0x64         100   
.text.vTaskStartSchedul     0x7788           0x64         100   
.text.USART_READ            0x77ec           0x64         100   
.text.f_chdir               0x7850           0x60          96   
.text.f_chmod               0x78b0           0x5e          94   
.text.BusFault_Handler      0x790e            0x2           2   
.text.SERCOM4_I2C_Initi     0x7910           0x5c          92   
.text.chk_lock              0x796c           0x5c          92   
.text.get_ldnumber          0x79c8           0x5c          92   
.text.dir_clear             0x7a24           0x5c          92   
.text.dir_remove            0x7a80           0x5c          92   
.text.f_utime               0x7adc           0x5c          92   
.text.FATFS_open            0x7b38           0x5c          92   
.text.xTaskCheckForTime     0x7b94           0x5c          92   
.text.__libc_start_init     0x7bf0           0x5c          92   
.text.f_gets                0x7c4c           0x5a          90   
.text._DRV_SPI_PlibCall     0x7ca6           0x58          88   
.text.OSAL_SEM_Create       0x7cfe           0x58          88   
.text.UsageFault_Handle     0x7d56            0x2           2   
.text.SERCOM3_USART_Rea     0x7d58           0x58          88   
.text.dir_alloc             0x7db0           0x54          84   
.rodata                     0x7e04           0x54          84  Read-only const 
.text.SYS_FS_MEDIA_MANA     0x7e58           0x54          84   
.text.SYS_TIME_Callback     0x7eac           0x54          84   
.text.SYS_TIME_RemoveFr     0x7f00           0x50          80   
.text.f_readdir             0x7f50           0x4e          78   
.text.Dummy_App_Func        0x7f9e            0x2           2   
.text.DRV_SDSPI_Close       0x7fa0           0x4c          76   
.text._DRV_SPI_DriverHa     0x7fec           0x4c          76   
.text._DRV_SDSPI_Driver     0x8038           0x48          72   
.text.SERCOM3_USART_Wri     0x8080           0x48          72   
.text.sync_window           0x80c8           0x48          72   
.text.ff_uni2oem            0x8110           0x48          72   
.text.xPortStartSchedul     0x8158           0x48          72   
.text.validate              0x81a0           0x46          70   
.text.vPortFree             0x81e6            0x2           2   
.text.RTC_Initialize        0x81e8           0x44          68   
.text.f_stat                0x822c           0x44          68   
.text.SYS_INT_SourceDis     0x8270           0x44          68   
.text.SYS_TIME_TimerSta     0x82b4           0x44          68   
.text                       0x82f8           0x40          64  App's exec code 
.text.disk_checkCommand     0x8338           0x40          64   
.text.SYS_FS_MEDIA_MANA     0x8378           0x40          64   
.text.putc_bfd              0x83b8           0x3e          62   
.text.FATFS_getclusters     0x83f6           0x3e          62   
.text.OSAL_SEM_PostISR      0x8434           0x3c          60   
.text.SERCOM2_SPI_Initi     0x8470           0x3c          60   
.text.move_window           0x84ac           0x3c          60   
.text.SYS_TIME_GetTimer     0x84e8           0x3c          60   
.text.SYS_TIME_Resource     0x8524           0x3c          60   
.text.SYS_TIME_TimerDes     0x8560           0x3c          60   
.text.putc_flush            0x859c           0x3a          58   
.text.disk_ioctl            0x85d6           0x3a          58   
.text.DRV_SDSPI_Command     0x8610           0x34          52   
.text._DRV_SDSPI_SPIWri     0x8644           0x34          52   
.text.SERCOM3_USART_Ini     0x8678           0x34          52   
.text.dec_lock              0x86ac           0x34          52   
.text.f_close               0x86e0           0x34          52   
.text.f_fdisk               0x8714           0x34          52   
.text.SYS_TIME_Resource     0x8748           0x34          52   
.text.vListInsert           0x877c           0x34          52   
.text.vTaskDelay            0x87b0           0x34          52   
.rodata.sdspiMediaFunct     0x87e4           0x30          48   
.text.SERCOM3_USART_Err     0x8814           0x30          48   
.text.f_puts                0x8844           0x30          48   
.text.disk_write            0x8874           0x30          48   
.text.SYS_FS_MEDIA_MANA     0x88a4           0x30          48   
.text.xQueueGenericCrea     0x88d4           0x30          48   
.text                       0x8904           0x30          48  App's exec code 
.text.strstr                0x8934           0x2e          46   
.text.__dummy               0x8962            0x2           2   
.text.ff_oem2uni            0x8964           0x2c          44   
.text.disk_read             0x8990           0x2c          44   
.text.FATFS_opendir         0x89bc           0x2c          44   
.rodata                     0x89e8           0x2c          44  Read-only const 
.text.pxPortInitialiseS     0x8a14           0x2c          44   
.text.xPortSysTickHandl     0x8a40           0x2c          44   
.text.prvResetNextTaskU     0x8a6c           0x2c          44   
.text.f_closedir            0x8a98           0x2a          42   
.text.DRV_SDSPI_IsAttac     0x8ac4           0x28          40   
.text.RTC_InterruptHand     0x8aec           0x28          40   
.text.tchar2uni             0x8b14           0x28          40   
.text.FATFS_mkfs            0x8b3c           0x28          40   
.rodata.drvSPI0remapDat     0x8b64           0x28          40   
.text.prvPortStartFirst     0x8b8c           0x28          40   
.text.vPortSetupTimerIn     0x8bb4           0x28          40   
.text._DRV_SDSPI_SPISpe     0x8bdc           0x26          38   
.text.f_putc                0x8c02           0x26          38   
.text.get_fattime           0x8c28           0x26          38   
.text._DRV_SDSPI_CardDe     0x8c50           0x24          36   
.text._DRV_SDSPI_CmdRes     0x8c74           0x24          36   
.text._DRV_SDSPI_TimerS     0x8c98           0x24          36   
.text.f_chdrive             0x8cbc           0x24          36   
.text.vPortSVCHandler       0x8ce0           0x24          36   
.text.uxListRemove          0x8d04           0x24          36   
.text.xQueueCreateMutex     0x8d28           0x24          36   
.text.SYS_FS_MEDIA_MANA     0x8d4c           0x22          34   
.text.FATFS_chdrive         0x8d6e           0x22          34   
.text.DRV_SDSPI_Geometr     0x8d90           0x20          32   
.text.ld_clust              0x8db0           0x20          32   
.text.diskEventHandler      0x8dd0           0x20          32   
.text.SYS_FS_MEDIA_MANA     0x8df0           0x20          32   
.rodata                     0x8e10           0x20          32  Read-only const 
.rodata.drvSDSPI0InitDa     0x8e30           0x20          32   
.text.prvTaskExitError      0x8e50           0x20          32   
.text.vPortEnterCritica     0x8e70           0x20          32   
.text.OSAL_SEM_Pend         0x8e90           0x1e          30   
.text.OSAL_MUTEX_Lock       0x8eae           0x1e          30   
.text.sum_sfn               0x8ecc           0x1e          30   
.text.FATFS_close           0x8eea           0x1e          30   
.text.FATFS_closedir        0x8f08           0x1e          30   
.text._DRV_SDSPI_EnterI     0x8f26           0x1c          28   
.text.RTC_Timer32Stop       0x8f44           0x1c          28   
.text.SERCOM3_USART_Err     0x8f60           0x1c          28   
.text.SYS_FS_MEDIA_MANA     0x8f7c           0x1c          28   
.text.vTaskPlaceOnEvent     0x8f98           0x1c          28   
.text.pvTaskIncrementMu     0x8fb4           0x1c          28   
.text.memcmp                0x8fd0           0x1c          28   
.text.st_clust              0x8fec           0x1a          26   
.text.FATFS_readdir         0x9006           0x1a          26   
.text.OSAL_MUTEX_Create     0x9020           0x18          24   
.text.OSAL_MUTEX_Unlock     0x9038           0x18          24   
.text.RTC_Timer32Start      0x9050           0x18          24   
.text.SERCOM3_USART_Wri     0x9068           0x18          24   
.text._SYS_FS_MEDIA_MAN     0x9080           0x18          24   
.text.FATFS_stat            0x9098           0x18          24   
.rodata.drvSPI0InitData     0x90b0           0x18          24   
.text._DRV_SDSPI_0_Task     0x90c8           0x18          24   
.text.vTaskInternalSetT     0x90e0           0x18          24   
.text.DRV_SDSPI_Read        0x90f8           0x16          22   
.text.DRV_SDSPI_Write       0x910e           0x16          22   
.text._DRV_SDSPI_CmdRes     0x9124           0x16          22   
.text._DRV_SDSPI_TimerS     0x913a           0x16          22   
.text.DRV_SPI_ReadTrans     0x9150           0x16          22   
.text.ld_dword              0x9166           0x16          22   
.text.clst2sect             0x917c           0x16          22   
.text.vListInitialise       0x9192           0x16          22   
.text.vListInsertEnd        0x91a8           0x16          22   
.text.prvIsQueueEmpty       0x91be           0x16          22   
.text.xQueueCreateCount     0x91d4           0x16          22   
.text.memcpy                0x91ea           0x16          22   
.text.DRV_SDSPI_Registe     0x9200           0x14          20   
.text.SERCOM4_I2C_ReadB     0x9214           0x14          20   
.text.SERCOM2_SPI_IsTra     0x9228           0x14          20   
.text.mem_cpy               0x923c           0x14          20   
.rodata.badchr.8899         0x9250           0x14          20   
.rodata.sysTimePlibAPI      0x9264           0x14          20   
.text.vPortEnableVFP        0x9278           0x14          20   
.text.vPortExitCritical     0x928c           0x14          20   
.text.APP_Initialize        0x92a0           0x14          20   
.text.DRV_SDSPI_EventHa     0x92b4           0x12          18   
.text.DRV_SPI_WriteTran     0x92c6           0x12          18   
.text.NVIC_INT_Disable      0x92d8           0x12          18   
.text.NVIC_INT_Restore      0x92ea           0x12          18   
.text.vApplicationStack     0x92fc           0x12          18   
.text.vApplicationMallo     0x930e           0x12          18   
.text.NVMCTRL_Initializ     0x9320           0x10          16   
.text.SERCOM3_USART_Rec     0x9330           0x10          16   
.text.st_dword              0x9340           0x10          16   
.rodata.LfnOfs              0x9350           0x10          16   
.rodata.cst.8936            0x9360           0x10          16   
.rodata.cst32.8937          0x9370           0x10          16   
.rodata.defopt.8938         0x9380           0x10          16   
.text.disk_initialize       0x9390           0x10          16   
.rodata.drvSPI0PlibAPI      0x93a0           0x10          16   
.text._SYS_FS_Tasks         0x93b0           0x10          16   
.text.vTaskSuspendAll       0x93c0           0x10          16   
.text.memset                0x93d0           0x10          16   
.text.strlen                0x93e0           0x10          16   
.text.FATFS_eof             0x93f0            0xe          14   
.text.main                  0x93fe            0xe          14   
.text._DRV_SDSPI_SPIBlo     0x940c            0xc          12   
.text.RTC_Timer32Callba     0x9418            0xc          12   
.text.SERCOM4_I2C_Trans     0x9424            0xc          12   
.text.SERCOM4_I2C_LastB     0x9430            0xc          12   
.text.SERCOM2_SPI_Callb     0x943c            0xc          12   
.text.mem_set               0x9448            0xc          12   
.text.SYS_FS_MEDIA_MANA     0x9454            0xc          12   
.text.FATFS_error           0x9460            0xc          12   
.text.vTaskMissedYield      0x946c            0xc          12   
.text.I2C_READ              0x9478            0xc          12   
.text.APP_Tasks             0x9484            0xc          12   
.text._DRV_SDSPI_SPIWri     0x9490            0xa          10   
.text._DRV_SDSPI_SPIRea     0x949a            0xa          10   
.text._DRV_SDSPI_SPIExc     0x94a4            0xa          10   
.text.FATFS_read            0x94ae            0xa          10   
.text.FATFS_lseek           0x94b8            0xa          10   
.text.FATFS_gets            0x94c2            0xa          10   
.text.FATFS_write           0x94cc            0xa          10   
.text.FATFS_truncate        0x94d6            0xa          10   
.text.FATFS_sync            0x94e0            0xa          10   
.text.FATFS_putc            0x94ea            0xa          10   
.text.FATFS_puts            0x94f4            0xa          10   
.text.FATFS_printf          0x94fe            0xa          10   
.text.SYS_FS_Tasks          0x9508            0x8           8   
.rodata.gPartitionTypeO     0x9510            0x8           8   
.text.FATFS_getlabel        0x9518            0x8           8   
.text.FATFS_getcwd          0x9520            0x8           8   
.text.FATFS_chdir           0x9528            0x8           8   
.text.FATFS_mkdir           0x9530            0x8           8   
.text.FATFS_unlink          0x9538            0x8           8   
.text.FATFS_setlabel        0x9540            0x8           8   
.text.FATFS_chmod           0x9548            0x8           8   
.text.FATFS_utime           0x9550            0x8           8   
.text.FATFS_rename          0x9558            0x8           8   
.text.FATFS_fdisk           0x9560            0x8           8   
.rodata.drvSPI0remapClo     0x9568            0x8           8   
.rodata.drvSPI0remapClo     0x9570            0x8           8   
.rodata.sysFSInit           0x9578            0x8           8   
.rodata.sysTimeInitData     0x9580            0x8           8   
.text._APP_Tasks            0x9588            0x8           8   
.rodata                     0x9590            0x8           8  Read-only const 
.text.DRV_SDSPI_TimerCa     0x9598            0x6           6   
.text.RTC_Timer32Freque     0x959e            0x6           6   
.text.vListInitialiseIt     0x95a4            0x6           6   
.text.PORT_GroupSet         0x95aa            0x4           4   
.text.PORT_GroupClear       0x95ae            0x4           4   
.text.disk_status           0x95b2            0x4           4   
.text.FATFS_tell            0x95b6            0x4           4   
.text.FATFS_size            0x95ba            0x4           4   
.text                       0x95c0            0x4           4  App's exec code 
      Total ROM used  :      0x95bc       38332  7.3% of 0x80000
        --------------------------------------------------------------------------
         Total Program Memory used  :      0x95bc       38332  7.3% of 0x80000
        --------------------------------------------------------------------------


RAM Data-Memory Usage
section                    address  length [bytes]      (dec)  Description
-------                 ----------  -------------------------  -----------
.bss.ucHeap             0x20000000         0xa000       40960   
.bss.FATFSVolume        0x2000a000          0x250         592   
.bss.FATFSFileObject    0x2000a250          0x240         576   
.bss.FatFs              0x2000a490          0x240         576   
.bss.Fil                0x2000a6d0          0x230         560   
.bss.LfnBuf             0x2000a900          0x200         512   
.bss.gSYSFSMediaBlockBu 0x2000ab00          0x200         512   
.bss.gSYSFSMediaBuffer  0x2000ad00          0x200         512   
.bss.gSYSFSFileObj      0x2000af00          0x110         272   
.bss.receiveBuffer      0x2000b010          0x100         256   
.bss.gDrvSDSPIObj       0x2000b110           0xe0         224   
.bss.timers             0x2000b1f0           0xa0         160   
.bss.pxReadyTasksLists  0x2000b290           0x64         100   
.bss                    0x2000b2f4           0x50          80  Uninitialized data 
.bss.gDrvSPIObj         0x2000b344           0x48          72   
.bss.FatFs              0x2000b38c            0x4           4   
.bss.FATFSDirObject     0x2000b390           0x38          56   
.bss.sercom2SPIObj      0x2000b3c8           0x2c          44   
.bss.gSYSFSMediaObject  0x2000b3f4           0x28          40   
.bss.gSystemCounterObj  0x2000b41c           0x28          40   
.bss.drvSPI0ClientObjPo 0x2000b444           0x24          36   
.bss                    0x2000b468           0x1c          28  Uninitialized data 
.bss.gSYSFSVolumeObject 0x2000b484           0x1c          28   
.data.gSYSFSMediaManage 0x2000b4a0           0x18          24   
.bss.gSYSFSMountPoint   0x2000b4b8           0x14          20   
.data.gSYSFSVolumeName  0x2000b4cc           0x14          20   
.bss.xDelayedTaskList1  0x2000b4e0           0x14          20   
.bss.xDelayedTaskList2  0x2000b4f4           0x14          20   
.bss.xPendingReadyList  0x2000b508           0x14          20   
.bss.xSuspendedTaskList 0x2000b51c           0x14          20   
.bss.xTasksWaitingTermi 0x2000b530           0x14          20   
.bss.Files              0x2000b544           0x10          16   
.bss.gSYSFSDirObj       0x2000b554           0x10          16   
.bss.drvSDSPI0ClientObj 0x2000b564           0x10          16   
.data.SD_MOUNT_FAIL     0x2000b574           0x10          16   
.data.SD_SUCCESS_MSG    0x2000b584            0xd          13   
.bss.isLastByteTransfer 0x2000b591            0x1           1   
.data.gSysTimeTokenCoun 0x2000b592            0x2           2   
.bss.sysObj             0x2000b594            0xc          12   
.bss.sysfsMountTable    0x2000b5a0            0xc          12   
.data.SD_FAILED_MSG     0x2000b5ac            0xa          10   
.bss.Fsid               0x2000b5b6            0x2           2   
.bss.gSYSFSObj          0x2000b5b8            0x8           8   
.bss.gSysFsDiskData     0x2000b5c0            0x8           8   
.bss.rtcObj             0x2000b5c8            0xc          12   
.bss.sercom4I2CSObj     0x2000b5d4            0xc          12   
.bss.gSysFsMutex        0x2000b5e0            0x4           4   
.bss.xAPP_Tasks         0x2000b5e4            0x4           4   
.data.uxCriticalNesting 0x2000b5e8            0x4           4   
.bss.pucAlignedHeap.616 0x2000b5ec            0x4           4   
.bss.xNextFreeByte      0x2000b5f0            0x4           4   
.bss.pxCurrentTCB       0x2000b5f4            0x4           4   
.bss.pxDelayedTaskList  0x2000b5f8            0x4           4   
.bss.pxOverflowDelayedT 0x2000b5fc            0x4           4   
.bss.uxCurrentNumberOfT 0x2000b600            0x4           4   
.bss.uxDeletedTasksWait 0x2000b604            0x4           4   
.bss.uxSchedulerSuspend 0x2000b608            0x4           4   
.bss.uxTaskNumber       0x2000b60c            0x4           4   
.bss.uxTopReadyPriority 0x2000b610            0x4           4   
.bss.xIdleTaskHandle    0x2000b614            0x4           4   
.bss.xNextTaskUnblockTi 0x2000b618            0x4           4   
.bss.xNumOfOverflows    0x2000b61c            0x4           4   
.bss.xPendedTicks       0x2000b620            0x4           4   
.bss.xSchedulerRunning  0x2000b624            0x4           4   
.bss.xTickCount         0x2000b628            0x4           4   
.bss.xYieldPending      0x2000b62c            0x4           4   
.bss.bw                 0x2000b630            0x4           4   
.bss                    0x2000b634            0x8           8  Uninitialized data 
.data.newline           0x2000b63c            0x3           3   
.bss.isExclusiveUseMute 0x2000b63f            0x1           1   
.bss.VolToPart          0x2000b640            0x2           2   
.bss.rxCounter          0x2000b642            0x2           2   
.bss.CurrVol            0x2000b644            0x1           1   
.bss.startupflag        0x2000b645            0x1           1   
.bss.data               0x2000b646            0x1           1   
         Total RAM used  :      0xb647       46663  23.7% of 0x30000
        --------------------------------------------------------------------------
            Total Data Memory used  :      0xb647       46663  23.7% of 0x30000
        --------------------------------------------------------------------------


Dynamic Data-Memory Reservation
section                    address  length [bytes]      (dec)  Description
-------                 ----------  -------------------------  -----------
heap                    0x2000b648          0x200         512  Reserved for heap 
stack                   0x2000b860        0x24790      149392  Reserved for stack 

        --------------------------------------------------------------------------

Discarded input sections

 .text          0x00000000        0x0 c:/program files/microchip/xc32/v4.00/bin/bin/../../lib/gcc/pic32c/8.3.1/thumb/v7e-m+fp/hard/crti.o
 .data          0x00000000        0x0 c:/program files/microchip/xc32/v4.00/bin/bin/../../lib/gcc/pic32c/8.3.1/thumb/v7e-m+fp/hard/crti.o
 .bss           0x00000000        0x0 c:/program files/microchip/xc32/v4.00/bin/bin/../../lib/gcc/pic32c/8.3.1/thumb/v7e-m+fp/hard/crti.o
 .xc_stack_usage.hdr
                0x00000000        0xe c:/program files/microchip/xc32/v4.00/bin/bin/../../lib/gcc/pic32c/8.3.1/thumb/v7e-m+fp/hard/crti.o
 .xc_stack_usage
                0x00000000       0x26 c:/program files/microchip/xc32/v4.00/bin/bin/../../lib/gcc/pic32c/8.3.1/thumb/v7e-m+fp/hard/crti.o
 .data          0x00000000        0x4 c:/program files/microchip/xc32/v4.00/bin/bin/../../lib/gcc/pic32c/8.3.1/thumb/v7e-m+fp/hard/crtbegin.o
 .xc_stack_usage
                0x00000000       0x3c c:/program files/microchip/xc32/v4.00/bin/bin/../../lib/gcc/pic32c/8.3.1/thumb/v7e-m+fp/hard/crtbegin.o
 .xc_stack_usage.hdr
                0x00000000        0xe c:/program files/microchip/xc32/v4.00/bin/bin/../../lib/gcc/pic32c/8.3.1/thumb/v7e-m+fp/hard/crtbegin.o
 .text          0x00000000        0x0 build/Artemis_PDU/production/_ext/1760076532/drv_sdspi.o
 .data          0x00000000        0x0 build/Artemis_PDU/production/_ext/1760076532/drv_sdspi.o
 .bss           0x00000000        0x0 build/Artemis_PDU/production/_ext/1760076532/drv_sdspi.o
 .text.DRV_SDSPI_RegisterWithSysFs
                0x00000000        0x2 build/Artemis_PDU/production/_ext/1760076532/drv_sdspi.o
 .text.DRV_SDSPI_Status
                0x00000000       0x14 build/Artemis_PDU/production/_ext/1760076532/drv_sdspi.o
 .text.DRV_SDSPI_SyncRead
                0x00000000       0x18 build/Artemis_PDU/production/_ext/1760076532/drv_sdspi.o
 .text.DRV_SDSPI_SyncWrite
                0x00000000       0x18 build/Artemis_PDU/production/_ext/1760076532/drv_sdspi.o
 .text.DRV_SDSPI_IsWriteProtected
                0x00000000       0x38 build/Artemis_PDU/production/_ext/1760076532/drv_sdspi.o
 .text          0x00000000        0x0 build/Artemis_PDU/production/_ext/1760076532/drv_sdspi_file_system.o
 .data          0x00000000        0x0 build/Artemis_PDU/production/_ext/1760076532/drv_sdspi_file_system.o
 .bss           0x00000000        0x0 build/Artemis_PDU/production/_ext/1760076532/drv_sdspi_file_system.o
 .text          0x00000000        0x0 build/Artemis_PDU/production/_ext/1760076532/drv_sdspi_driver_interface.o
 .data          0x00000000        0x0 build/Artemis_PDU/production/_ext/1760076532/drv_sdspi_driver_interface.o
 .bss           0x00000000        0x0 build/Artemis_PDU/production/_ext/1760076532/drv_sdspi_driver_interface.o
 .text          0x00000000        0x0 build/Artemis_PDU/production/_ext/1471363227/drv_spi.o
 .data          0x00000000        0x0 build/Artemis_PDU/production/_ext/1471363227/drv_spi.o
 .bss           0x00000000        0x0 build/Artemis_PDU/production/_ext/1471363227/drv_spi.o
 .text.DRV_SPI_Status
                0x00000000       0x14 build/Artemis_PDU/production/_ext/1471363227/drv_spi.o
 .text.DRV_SPI_Close
                0x00000000       0x54 build/Artemis_PDU/production/_ext/1471363227/drv_spi.o
 .text          0x00000000        0x0 build/Artemis_PDU/production/_ext/1624425958/osal_freertos.o
 .data          0x00000000        0x0 build/Artemis_PDU/production/_ext/1624425958/osal_freertos.o
 .bss           0x00000000        0x0 build/Artemis_PDU/production/_ext/1624425958/osal_freertos.o
 .text.OSAL_CRIT_Enter
                0x00000000       0x18 build/Artemis_PDU/production/_ext/1624425958/osal_freertos.o
 .text.OSAL_CRIT_Leave
                0x00000000       0x16 build/Artemis_PDU/production/_ext/1624425958/osal_freertos.o
 .text.OSAL_SEM_Delete
                0x00000000       0x12 build/Artemis_PDU/production/_ext/1624425958/osal_freertos.o
 .text.OSAL_SEM_Post
                0x00000000       0x18 build/Artemis_PDU/production/_ext/1624425958/osal_freertos.o
 .text.OSAL_SEM_GetCount
                0x00000000       0x12 build/Artemis_PDU/production/_ext/1624425958/osal_freertos.o
 .text.OSAL_MUTEX_Delete
                0x00000000       0x1a build/Artemis_PDU/production/_ext/1624425958/osal_freertos.o
 .text.OSAL_Malloc
                0x00000000        0x8 build/Artemis_PDU/production/_ext/1624425958/osal_freertos.o
 .text.OSAL_Free
                0x00000000        0x8 build/Artemis_PDU/production/_ext/1624425958/osal_freertos.o
 .text.OSAL_Initialize
                0x00000000        0x4 build/Artemis_PDU/production/_ext/1624425958/osal_freertos.o
 .text          0x00000000        0x0 build/Artemis_PDU/production/_ext/1650922938/plib_clock.o
 .data          0x00000000        0x0 build/Artemis_PDU/production/_ext/1650922938/plib_clock.o
 .bss           0x00000000        0x0 build/Artemis_PDU/production/_ext/1650922938/plib_clock.o
 .text          0x00000000        0x0 build/Artemis_PDU/production/_ext/1023086318/plib_cmcc.o
 .data          0x00000000        0x0 build/Artemis_PDU/production/_ext/1023086318/plib_cmcc.o
 .bss           0x00000000        0x0 build/Artemis_PDU/production/_ext/1023086318/plib_cmcc.o
 .text.CMCC_Disable
                0x00000000       0x18 build/Artemis_PDU/production/_ext/1023086318/plib_cmcc.o
 .text.CMCC_EnableICache
                0x00000000       0x28 build/Artemis_PDU/production/_ext/1023086318/plib_cmcc.o
 .text.CMCC_DisableICache
                0x00000000       0x28 build/Artemis_PDU/production/_ext/1023086318/plib_cmcc.o
 .text.CMCC_EnableDCache
                0x00000000       0x28 build/Artemis_PDU/production/_ext/1023086318/plib_cmcc.o
 .text.CMCC_DisableDCache
                0x00000000       0x28 build/Artemis_PDU/production/_ext/1023086318/plib_cmcc.o
 .text.CMCC_InvalidateAll
                0x00000000       0x20 build/Artemis_PDU/production/_ext/1023086318/plib_cmcc.o
 .debug_info    0x00000000      0x584 build/Artemis_PDU/production/_ext/1023086318/plib_cmcc.o
 .debug_abbrev  0x00000000       0xac build/Artemis_PDU/production/_ext/1023086318/plib_cmcc.o
 .debug_aranges
                0x00000000       0x48 build/Artemis_PDU/production/_ext/1023086318/plib_cmcc.o
 .debug_ranges  0x00000000       0x38 build/Artemis_PDU/production/_ext/1023086318/plib_cmcc.o
 .debug_line    0x00000000      0x23f build/Artemis_PDU/production/_ext/1023086318/plib_cmcc.o
 .debug_str     0x00000000        0x0 build/Artemis_PDU/production/_ext/1023086318/plib_cmcc.o
 .comment       0x00000000       0x54 build/Artemis_PDU/production/_ext/1023086318/plib_cmcc.o
 .debug_frame   0x00000000       0x70 build/Artemis_PDU/production/_ext/1023086318/plib_cmcc.o
 .ARM.attributes
                0x00000000       0x34 build/Artemis_PDU/production/_ext/1023086318/plib_cmcc.o
 .text          0x00000000        0x0 build/Artemis_PDU/production/_ext/1648773452/plib_evsys.o
 .data          0x00000000        0x0 build/Artemis_PDU/production/_ext/1648773452/plib_evsys.o
 .bss           0x00000000        0x0 build/Artemis_PDU/production/_ext/1648773452/plib_evsys.o
 .text          0x00000000        0x0 build/Artemis_PDU/production/_ext/1022749782/plib_nvic.o
 .data          0x00000000        0x0 build/Artemis_PDU/production/_ext/1022749782/plib_nvic.o
 .bss           0x00000000        0x0 build/Artemis_PDU/production/_ext/1022749782/plib_nvic.o
 .text.NVIC_INT_Enable
                0x00000000        0x8 build/Artemis_PDU/production/_ext/1022749782/plib_nvic.o
 .text          0x00000000        0x0 build/Artemis_PDU/production/_ext/236948536/plib_nvmctrl.o
 .data          0x00000000        0x0 build/Artemis_PDU/production/_ext/236948536/plib_nvmctrl.o
 .bss           0x00000000        0x0 build/Artemis_PDU/production/_ext/236948536/plib_nvmctrl.o
 .text.NVMCTRL_Read
                0x00000000       0x10 build/Artemis_PDU/production/_ext/236948536/plib_nvmctrl.o
 .text.NVMCTRL_SetWriteMode
                0x00000000       0x14 build/Artemis_PDU/production/_ext/236948536/plib_nvmctrl.o
 .text.NVMCTRL_QuadWordWrite
                0x00000000       0x4c build/Artemis_PDU/production/_ext/236948536/plib_nvmctrl.o
 .text.NVMCTRL_DoubleWordWrite
                0x00000000       0x40 build/Artemis_PDU/production/_ext/236948536/plib_nvmctrl.o
 .text.NVMCTRL_PageBufferWrite
                0x00000000       0x2c build/Artemis_PDU/production/_ext/236948536/plib_nvmctrl.o
 .text.NVMCTRL_PageBufferCommit
                0x00000000       0x28 build/Artemis_PDU/production/_ext/236948536/plib_nvmctrl.o
 .text.NVMCTRL_PageWrite
                0x00000000       0x40 build/Artemis_PDU/production/_ext/236948536/plib_nvmctrl.o
 .text.NVMCTRL_BlockErase
                0x00000000       0x1c build/Artemis_PDU/production/_ext/236948536/plib_nvmctrl.o
 .text.NVMCTRL_ErrorGet
                0x00000000       0x20 build/Artemis_PDU/production/_ext/236948536/plib_nvmctrl.o
 .text.NVMCTRL_StatusGet
                0x00000000        0xc build/Artemis_PDU/production/_ext/236948536/plib_nvmctrl.o
 .text.NVMCTRL_IsBusy
                0x00000000       0x14 build/Artemis_PDU/production/_ext/236948536/plib_nvmctrl.o
 .text.NVMCTRL_RegionLock
                0x00000000       0x10 build/Artemis_PDU/production/_ext/236948536/plib_nvmctrl.o
 .text.NVMCTRL_RegionUnlock
                0x00000000       0x10 build/Artemis_PDU/production/_ext/236948536/plib_nvmctrl.o
 .text.NVMCTRL_RegionLockStatusGet
                0x00000000        0xc build/Artemis_PDU/production/_ext/236948536/plib_nvmctrl.o
 .text.NVMCTRL_SmartEEPROM_IsBusy
                0x00000000       0x10 build/Artemis_PDU/production/_ext/236948536/plib_nvmctrl.o
 .text.NVMCTRL_SmartEEPROMStatusGet
                0x00000000        0xc build/Artemis_PDU/production/_ext/236948536/plib_nvmctrl.o
 .text.NVMCTRL_SmartEEPROM_IsActiveSectorFull
                0x00000000       0x10 build/Artemis_PDU/production/_ext/236948536/plib_nvmctrl.o
 .text.NVMCTRL_BankSwap
                0x00000000       0x10 build/Artemis_PDU/production/_ext/236948536/plib_nvmctrl.o
 .text.NVMCTRL_SmartEEPROMSectorReallocate
                0x00000000       0x10 build/Artemis_PDU/production/_ext/236948536/plib_nvmctrl.o
 .text.NVMCTRL_SmartEEPROMFlushPageBuffer
                0x00000000       0x18 build/Artemis_PDU/production/_ext/236948536/plib_nvmctrl.o
 .bss.nvm_error
                0x00000000        0x2 build/Artemis_PDU/production/_ext/236948536/plib_nvmctrl.o
 .text          0x00000000        0x0 build/Artemis_PDU/production/_ext/1022696631/plib_port.o
 .data          0x00000000        0x0 build/Artemis_PDU/production/_ext/1022696631/plib_port.o
 .bss           0x00000000        0x0 build/Artemis_PDU/production/_ext/1022696631/plib_port.o
 .text.PORT_GroupRead
                0x00000000        0x4 build/Artemis_PDU/production/_ext/1022696631/plib_port.o
 .text.PORT_GroupWrite
                0x00000000        0xc build/Artemis_PDU/production/_ext/1022696631/plib_port.o
 .text.PORT_GroupLatchRead
                0x00000000        0x4 build/Artemis_PDU/production/_ext/1022696631/plib_port.o
 .text.PORT_GroupToggle
                0x00000000        0x4 build/Artemis_PDU/production/_ext/1022696631/plib_port.o
 .text.PORT_GroupInputEnable
                0x00000000        0x4 build/Artemis_PDU/production/_ext/1022696631/plib_port.o
 .text.PORT_GroupOutputEnable
                0x00000000        0x4 build/Artemis_PDU/production/_ext/1022696631/plib_port.o
 .text.PORT_PinPeripheralFunctionConfig
                0x00000000       0x4a build/Artemis_PDU/production/_ext/1022696631/plib_port.o
 .text.PORT_PinGPIOConfig
                0x00000000       0x20 build/Artemis_PDU/production/_ext/1022696631/plib_port.o
 .text          0x00000000        0x0 build/Artemis_PDU/production/_ext/659748505/plib_rtc_timer.o
 .data          0x00000000        0x0 build/Artemis_PDU/production/_ext/659748505/plib_rtc_timer.o
 .bss           0x00000000        0x0 build/Artemis_PDU/production/_ext/659748505/plib_rtc_timer.o
 .text.RTC_Timer32CounterSet
                0x00000000       0x14 build/Artemis_PDU/production/_ext/659748505/plib_rtc_timer.o
 .text.RTC_Timer32Compare0Set
                0x00000000       0x14 build/Artemis_PDU/production/_ext/659748505/plib_rtc_timer.o
 .text.RTC_Timer32Compare1Set
                0x00000000       0x14 build/Artemis_PDU/production/_ext/659748505/plib_rtc_timer.o
 .text.RTC_Timer32CounterGet
                0x00000000       0x18 build/Artemis_PDU/production/_ext/659748505/plib_rtc_timer.o
 .text.RTC_Timer32PeriodGet
                0x00000000        0x6 build/Artemis_PDU/production/_ext/659748505/plib_rtc_timer.o
 .text.RTC_Timer32InterruptEnable
                0x00000000        0xc build/Artemis_PDU/production/_ext/659748505/plib_rtc_timer.o
 .text.RTC_Timer32InterruptDisable
                0x00000000        0xc build/Artemis_PDU/production/_ext/659748505/plib_rtc_timer.o
 .text.RTC_BackupRegisterSet
                0x00000000       0x10 build/Artemis_PDU/production/_ext/659748505/plib_rtc_timer.o
 .text.RTC_BackupRegisterGet
                0x00000000       0x10 build/Artemis_PDU/production/_ext/659748505/plib_rtc_timer.o
 .text.RTC_TamperSourceGet
                0x00000000        0xc build/Artemis_PDU/production/_ext/659748505/plib_rtc_timer.o
 .text.RTC_Timer32TimeStampGet
                0x00000000        0xc build/Artemis_PDU/production/_ext/659748505/plib_rtc_timer.o
 .text          0x00000000        0x0 build/Artemis_PDU/production/_ext/835284660/plib_sercom4_i2c_slave.o
 .data          0x00000000        0x0 build/Artemis_PDU/production/_ext/835284660/plib_sercom4_i2c_slave.o
 .bss           0x00000000        0x0 build/Artemis_PDU/production/_ext/835284660/plib_sercom4_i2c_slave.o
 .text.SERCOM4_I2C_CallbackRegister
                0x00000000        0xc build/Artemis_PDU/production/_ext/835284660/plib_sercom4_i2c_slave.o
 .text.SERCOM4_I2C_IsBusy
                0x00000000        0xc build/Artemis_PDU/production/_ext/835284660/plib_sercom4_i2c_slave.o
 .text.SERCOM4_I2C_WriteByte
                0x00000000       0x10 build/Artemis_PDU/production/_ext/835284660/plib_sercom4_i2c_slave.o
 .text.SERCOM4_I2C_ErrorGet
                0x00000000       0x10 build/Artemis_PDU/production/_ext/835284660/plib_sercom4_i2c_slave.o
 .text.SERCOM4_I2C_AckActionSet
                0x00000000       0x1e build/Artemis_PDU/production/_ext/835284660/plib_sercom4_i2c_slave.o
 .text          0x00000000        0x0 build/Artemis_PDU/production/_ext/796654533/plib_sercom2_spi_master.o
 .data          0x00000000        0x0 build/Artemis_PDU/production/_ext/796654533/plib_sercom2_spi_master.o
 .bss           0x00000000        0x0 build/Artemis_PDU/production/_ext/796654533/plib_sercom2_spi_master.o
 .text.SERCOM2_SPI_IsBusy
                0x00000000       0x2c build/Artemis_PDU/production/_ext/796654533/plib_sercom2_spi_master.o
 .text.SERCOM2_SPI_Write
                0x00000000        0xc build/Artemis_PDU/production/_ext/796654533/plib_sercom2_spi_master.o
 .text.SERCOM2_SPI_Read
                0x00000000       0x10 build/Artemis_PDU/production/_ext/796654533/plib_sercom2_spi_master.o
 .text          0x00000000        0x0 build/Artemis_PDU/production/_ext/1679430495/plib_sercom3_usart.o
 .data          0x00000000        0x0 build/Artemis_PDU/production/_ext/1679430495/plib_sercom3_usart.o
 .bss           0x00000000        0x0 build/Artemis_PDU/production/_ext/1679430495/plib_sercom3_usart.o
 .text.SERCOM3_USART_FrequencyGet
                0x00000000        0x8 build/Artemis_PDU/production/_ext/1679430495/plib_sercom3_usart.o
 .text.SERCOM3_USART_SerialSetup
                0x00000000      0x128 build/Artemis_PDU/production/_ext/1679430495/plib_sercom3_usart.o
 .text.SERCOM3_USART_TransmitterEnable
                0x00000000       0x18 build/Artemis_PDU/production/_ext/1679430495/plib_sercom3_usart.o
 .text.SERCOM3_USART_TransmitterDisable
                0x00000000       0x18 build/Artemis_PDU/production/_ext/1679430495/plib_sercom3_usart.o
 .text.SERCOM3_USART_TransmitterIsReady
                0x00000000       0x10 build/Artemis_PDU/production/_ext/1679430495/plib_sercom3_usart.o
 .text.SERCOM3_USART_TransmitComplete
                0x00000000       0x10 build/Artemis_PDU/production/_ext/1679430495/plib_sercom3_usart.o
 .text.SERCOM3_USART_ReceiverEnable
                0x00000000       0x18 build/Artemis_PDU/production/_ext/1679430495/plib_sercom3_usart.o
 .text.SERCOM3_USART_ReceiverDisable
                0x00000000       0x18 build/Artemis_PDU/production/_ext/1679430495/plib_sercom3_usart.o
 .text.SERCOM3_USART_ReadByte
                0x00000000        0xc build/Artemis_PDU/production/_ext/1679430495/plib_sercom3_usart.o
 .text          0x00000000        0x0 build/Artemis_PDU/production/_ext/1186129630/xc32_monitor.o
 .data          0x00000000        0x0 build/Artemis_PDU/production/_ext/1186129630/xc32_monitor.o
 .bss           0x00000000        0x0 build/Artemis_PDU/production/_ext/1186129630/xc32_monitor.o
 .text._mon_getc
                0x00000000       0x1c build/Artemis_PDU/production/_ext/1186129630/xc32_monitor.o
 .text._mon_putc
                0x00000000       0x1c build/Artemis_PDU/production/_ext/1186129630/xc32_monitor.o
 .debug_info    0x00000000      0x63f build/Artemis_PDU/production/_ext/1186129630/xc32_monitor.o
 .debug_abbrev  0x00000000      0x16d build/Artemis_PDU/production/_ext/1186129630/xc32_monitor.o
 .debug_loc     0x00000000       0xf0 build/Artemis_PDU/production/_ext/1186129630/xc32_monitor.o
 .debug_aranges
                0x00000000       0x28 build/Artemis_PDU/production/_ext/1186129630/xc32_monitor.o
 .debug_ranges  0x00000000       0x18 build/Artemis_PDU/production/_ext/1186129630/xc32_monitor.o
 .debug_line    0x00000000      0x298 build/Artemis_PDU/production/_ext/1186129630/xc32_monitor.o
 .debug_str     0x00000000       0x27 build/Artemis_PDU/production/_ext/1186129630/xc32_monitor.o
 .comment       0x00000000       0x54 build/Artemis_PDU/production/_ext/1186129630/xc32_monitor.o
 .debug_frame   0x00000000       0x50 build/Artemis_PDU/production/_ext/1186129630/xc32_monitor.o
 .ARM.attributes
                0x00000000       0x34 build/Artemis_PDU/production/_ext/1186129630/xc32_monitor.o
 .text          0x00000000        0x0 build/Artemis_PDU/production/_ext/177662547/sys_cache.o
 .data          0x00000000        0x0 build/Artemis_PDU/production/_ext/177662547/sys_cache.o
 .bss           0x00000000        0x0 build/Artemis_PDU/production/_ext/177662547/sys_cache.o
 .text.SYS_CACHE_EnableCaches
                0x00000000        0x2 build/Artemis_PDU/production/_ext/177662547/sys_cache.o
 .text.SYS_CACHE_DisableCaches
                0x00000000        0x2 build/Artemis_PDU/production/_ext/177662547/sys_cache.o
 .text.SYS_CACHE_EnableICache
                0x00000000        0x2 build/Artemis_PDU/production/_ext/177662547/sys_cache.o
 .text.SYS_CACHE_DisableICache
                0x00000000        0x2 build/Artemis_PDU/production/_ext/177662547/sys_cache.o
 .text.SYS_CACHE_InvalidateICache
                0x00000000        0x2 build/Artemis_PDU/production/_ext/177662547/sys_cache.o
 .text.SYS_CACHE_EnableDCache
                0x00000000        0x2 build/Artemis_PDU/production/_ext/177662547/sys_cache.o
 .text.SYS_CACHE_DisableDCache
                0x00000000        0x2 build/Artemis_PDU/production/_ext/177662547/sys_cache.o
 .text.SYS_CACHE_InvalidateDCache
                0x00000000        0x2 build/Artemis_PDU/production/_ext/177662547/sys_cache.o
 .text.SYS_CACHE_CleanDCache
                0x00000000        0x2 build/Artemis_PDU/production/_ext/177662547/sys_cache.o
 .text.SYS_CACHE_CleanInvalidateDCache
                0x00000000        0x2 build/Artemis_PDU/production/_ext/177662547/sys_cache.o
 .text.SYS_CACHE_InvalidateDCache_by_Addr
                0x00000000        0x2 build/Artemis_PDU/production/_ext/177662547/sys_cache.o
 .text.SYS_CACHE_CleanDCache_by_Addr
                0x00000000        0x2 build/Artemis_PDU/production/_ext/177662547/sys_cache.o
 .text.SYS_CACHE_CleanInvalidateDCache_by_Addr
                0x00000000        0x2 build/Artemis_PDU/production/_ext/177662547/sys_cache.o
 .debug_info    0x00000000      0x616 build/Artemis_PDU/production/_ext/177662547/sys_cache.o
 .debug_abbrev  0x00000000       0xa9 build/Artemis_PDU/production/_ext/177662547/sys_cache.o
 .debug_aranges
                0x00000000       0x80 build/Artemis_PDU/production/_ext/177662547/sys_cache.o
 .debug_ranges  0x00000000       0x70 build/Artemis_PDU/production/_ext/177662547/sys_cache.o
 .debug_line    0x00000000      0x1c9 build/Artemis_PDU/production/_ext/177662547/sys_cache.o
 .debug_str     0x00000000        0x0 build/Artemis_PDU/production/_ext/177662547/sys_cache.o
 .comment       0x00000000       0x54 build/Artemis_PDU/production/_ext/177662547/sys_cache.o
 .debug_frame   0x00000000       0xe0 build/Artemis_PDU/production/_ext/177662547/sys_cache.o
 .ARM.attributes
                0x00000000       0x34 build/Artemis_PDU/production/_ext/177662547/sys_cache.o
 .text          0x00000000        0x0 build/Artemis_PDU/production/_ext/1148418531/sys_dma.o
 .data          0x00000000        0x0 build/Artemis_PDU/production/_ext/1148418531/sys_dma.o
 .bss           0x00000000        0x0 build/Artemis_PDU/production/_ext/1148418531/sys_dma.o
 .text.SYS_DMA_AddressingModeSetup
                0x00000000        0x2 build/Artemis_PDU/production/_ext/1148418531/sys_dma.o
 .text.SYS_DMA_DataWidthSetup
                0x00000000        0x2 build/Artemis_PDU/production/_ext/1148418531/sys_dma.o
 .debug_info    0x00000000      0x89f build/Artemis_PDU/production/_ext/1148418531/sys_dma.o
 .debug_abbrev  0x00000000       0xa5 build/Artemis_PDU/production/_ext/1148418531/sys_dma.o
 .debug_aranges
                0x00000000       0x28 build/Artemis_PDU/production/_ext/1148418531/sys_dma.o
 .debug_ranges  0x00000000       0x18 build/Artemis_PDU/production/_ext/1148418531/sys_dma.o
 .debug_line    0x00000000       0x81 build/Artemis_PDU/production/_ext/1148418531/sys_dma.o
 .debug_str     0x00000000        0x0 build/Artemis_PDU/production/_ext/1148418531/sys_dma.o
 .comment       0x00000000       0x54 build/Artemis_PDU/production/_ext/1148418531/sys_dma.o
 .debug_frame   0x00000000       0x30 build/Artemis_PDU/production/_ext/1148418531/sys_dma.o
 .ARM.attributes
                0x00000000       0x34 build/Artemis_PDU/production/_ext/1148418531/sys_dma.o
 .text          0x00000000        0x0 build/Artemis_PDU/production/_ext/401857885/ff.o
 .data          0x00000000        0x0 build/Artemis_PDU/production/_ext/401857885/ff.o
 .bss           0x00000000        0x0 build/Artemis_PDU/production/_ext/401857885/ff.o
 .text          0x00000000        0x0 build/Artemis_PDU/production/_ext/401857885/ffunicode.o
 .data          0x00000000        0x0 build/Artemis_PDU/production/_ext/401857885/ffunicode.o
 .bss           0x00000000        0x0 build/Artemis_PDU/production/_ext/401857885/ffunicode.o
 .text          0x00000000        0x0 build/Artemis_PDU/production/_ext/867183764/diskio.o
 .data          0x00000000        0x0 build/Artemis_PDU/production/_ext/867183764/diskio.o
 .bss           0x00000000        0x0 build/Artemis_PDU/production/_ext/867183764/diskio.o
 .text          0x00000000        0x0 build/Artemis_PDU/production/_ext/1111598889/sys_fs.o
 .data          0x00000000        0x0 build/Artemis_PDU/production/_ext/1111598889/sys_fs.o
 .bss           0x00000000        0x0 build/Artemis_PDU/production/_ext/1111598889/sys_fs.o
 .text.SYS_FS_GetDisk
                0x00000000       0xc4 build/Artemis_PDU/production/_ext/1111598889/sys_fs.o
 .text.SYS_FS_Mount
                0x00000000      0x1a8 build/Artemis_PDU/production/_ext/1111598889/sys_fs.o
 .text.SYS_FS_Unmount
                0x00000000      0x100 build/Artemis_PDU/production/_ext/1111598889/sys_fs.o
 .text.SYS_FS_FileOpen
                0x00000000      0x128 build/Artemis_PDU/production/_ext/1111598889/sys_fs.o
 .text.SYS_FS_FileClose
                0x00000000       0x7c build/Artemis_PDU/production/_ext/1111598889/sys_fs.o
 .text.SYS_FS_FileNameGet
                0x00000000       0x50 build/Artemis_PDU/production/_ext/1111598889/sys_fs.o
 .text.SYS_FS_FileRead
                0x00000000       0x84 build/Artemis_PDU/production/_ext/1111598889/sys_fs.o
 .text.SYS_FS_FileSeek
                0x00000000       0xdc build/Artemis_PDU/production/_ext/1111598889/sys_fs.o
 .text.SYS_FS_FileTell
                0x00000000       0x7c build/Artemis_PDU/production/_ext/1111598889/sys_fs.o
 .text.SYS_FS_FileSize
                0x00000000       0x7c build/Artemis_PDU/production/_ext/1111598889/sys_fs.o
 .text.SYS_FS_FileEOF
                0x00000000       0x68 build/Artemis_PDU/production/_ext/1111598889/sys_fs.o
 .text.SYS_FS_FileStat
                0x00000000       0x9c build/Artemis_PDU/production/_ext/1111598889/sys_fs.o
 .text.SYS_FS_Error
                0x00000000        0xc build/Artemis_PDU/production/_ext/1111598889/sys_fs.o
 .text.SYS_FS_FileError
                0x00000000       0x16 build/Artemis_PDU/production/_ext/1111598889/sys_fs.o
 .text.SYS_FS_DirOpen
                0x00000000       0xdc build/Artemis_PDU/production/_ext/1111598889/sys_fs.o
 .text.SYS_FS_DirClose
                0x00000000       0x7c build/Artemis_PDU/production/_ext/1111598889/sys_fs.o
 .text.SYS_FS_DirRead
                0x00000000       0x80 build/Artemis_PDU/production/_ext/1111598889/sys_fs.o
 .text.SYS_FS_DirRewind
                0x00000000       0x78 build/Artemis_PDU/production/_ext/1111598889/sys_fs.o
 .text.SYS_FS_DirSearch
                0x00000000      0x148 build/Artemis_PDU/production/_ext/1111598889/sys_fs.o
 .text.SYS_FS_FileStringGet
                0x00000000       0x8c build/Artemis_PDU/production/_ext/1111598889/sys_fs.o
 .text.SYS_FS_DirectoryChange
                0x00000000       0x94 build/Artemis_PDU/production/_ext/1111598889/sys_fs.o
 .text.SYS_FS_CurrentWorkingDirectoryGet
                0x00000000      0x124 build/Artemis_PDU/production/_ext/1111598889/sys_fs.o
 .text.SYS_FS_CurrentDriveGet
                0x00000000       0x4c build/Artemis_PDU/production/_ext/1111598889/sys_fs.o
 .text.SYS_FS_DriveLabelGet
                0x00000000       0xb8 build/Artemis_PDU/production/_ext/1111598889/sys_fs.o
 .text.SYS_FS_FileWrite
                0x00000000       0x88 build/Artemis_PDU/production/_ext/1111598889/sys_fs.o
 .text.SYS_FS_FileSync
                0x00000000       0x78 build/Artemis_PDU/production/_ext/1111598889/sys_fs.o
 .text.SYS_FS_FileTruncate
                0x00000000       0x70 build/Artemis_PDU/production/_ext/1111598889/sys_fs.o
 .text.SYS_FS_FileCharacterPut
                0x00000000       0x84 build/Artemis_PDU/production/_ext/1111598889/sys_fs.o
 .text.SYS_FS_FileStringPut
                0x00000000       0x8c build/Artemis_PDU/production/_ext/1111598889/sys_fs.o
 .text.SYS_FS_FilePrintf
                0x00000000       0xa0 build/Artemis_PDU/production/_ext/1111598889/sys_fs.o
 .text.SYS_FS_FileTestError
                0x00000000       0x68 build/Artemis_PDU/production/_ext/1111598889/sys_fs.o
 .text.SYS_FS_DirectoryMake
                0x00000000       0x94 build/Artemis_PDU/production/_ext/1111598889/sys_fs.o
 .text.SYS_FS_FileDirectoryRemove
                0x00000000       0x94 build/Artemis_PDU/production/_ext/1111598889/sys_fs.o
 .text.SYS_FS_FileDirectoryModeSet
                0x00000000       0x9c build/Artemis_PDU/production/_ext/1111598889/sys_fs.o
 .text.SYS_FS_FileDirectoryTimeSet
                0x00000000       0xb0 build/Artemis_PDU/production/_ext/1111598889/sys_fs.o
 .text.SYS_FS_FileDirectoryRenameMove
                0x00000000       0xc0 build/Artemis_PDU/production/_ext/1111598889/sys_fs.o
 .text.SYS_FS_CurrentDriveSet
                0x00000000       0xb0 build/Artemis_PDU/production/_ext/1111598889/sys_fs.o
 .text.SYS_FS_DriveLabelSet
                0x00000000       0xc8 build/Artemis_PDU/production/_ext/1111598889/sys_fs.o
 .text.SYS_FS_DriveFormat
                0x00000000       0x84 build/Artemis_PDU/production/_ext/1111598889/sys_fs.o
 .text.SYS_FS_DrivePartition
                0x00000000       0x84 build/Artemis_PDU/production/_ext/1111598889/sys_fs.o
 .text.SYS_FS_DriveSectorGet
                0x00000000       0xc8 build/Artemis_PDU/production/_ext/1111598889/sys_fs.o
 .rodata        0x00000000        0x8 build/Artemis_PDU/production/_ext/1111598889/sys_fs.o
 .bss.errorValue
                0x00000000        0x1 build/Artemis_PDU/production/_ext/1111598889/sys_fs.o
 .bss.gSYSFSCurrentMountPoint
                0x00000000        0x8 build/Artemis_PDU/production/_ext/1111598889/sys_fs.o
 .text          0x00000000        0x0 build/Artemis_PDU/production/_ext/1111598889/sys_fs_media_manager.o
 .data          0x00000000        0x0 build/Artemis_PDU/production/_ext/1111598889/sys_fs_media_manager.o
 .bss           0x00000000        0x0 build/Artemis_PDU/production/_ext/1111598889/sys_fs_media_manager.o
 .text.SYS_FS_MEDIA_MANAGER_DeRegister
                0x00000000        0xc build/Artemis_PDU/production/_ext/1111598889/sys_fs_media_manager.o
 .text.SYS_FS_MEDIA_MANAGER_Read
                0x00000000       0x4c build/Artemis_PDU/production/_ext/1111598889/sys_fs_media_manager.o
 .text.SYS_FS_MEDIA_MANAGER_AddressGet
                0x00000000       0x1c build/Artemis_PDU/production/_ext/1111598889/sys_fs_media_manager.o
 .text.SYS_FS_MEDIA_MANAGER_CommandStatusGet
                0x00000000       0x28 build/Artemis_PDU/production/_ext/1111598889/sys_fs_media_manager.o
 .text.SYS_FS_MEDIA_MANAGER_MediaStatusGet
                0x00000000       0x5c build/Artemis_PDU/production/_ext/1111598889/sys_fs_media_manager.o
 .text.SYS_FS_MEDIA_MANAGER_VolumePropertyGet
                0x00000000       0x30 build/Artemis_PDU/production/_ext/1111598889/sys_fs_media_manager.o
 .text          0x00000000        0x0 build/Artemis_PDU/production/_ext/1111598889/sys_fs_fat_interface.o
 .data          0x00000000        0x0 build/Artemis_PDU/production/_ext/1111598889/sys_fs_fat_interface.o
 .bss           0x00000000        0x0 build/Artemis_PDU/production/_ext/1111598889/sys_fs_fat_interface.o
 .text.FATFS_getfree
                0x00000000        0x8 build/Artemis_PDU/production/_ext/1111598889/sys_fs_fat_interface.o
 .text          0x00000000        0x0 build/Artemis_PDU/production/_ext/1813730513/sys_int.o
 .data          0x00000000        0x0 build/Artemis_PDU/production/_ext/1813730513/sys_int.o
 .bss           0x00000000        0x0 build/Artemis_PDU/production/_ext/1813730513/sys_int.o
 .text.SYS_INT_Enable
                0x00000000        0x8 build/Artemis_PDU/production/_ext/1813730513/sys_int.o
 .text.SYS_INT_Disable
                0x00000000        0x8 build/Artemis_PDU/production/_ext/1813730513/sys_int.o
 .text.SYS_INT_Restore
                0x00000000        0x8 build/Artemis_PDU/production/_ext/1813730513/sys_int.o
 .text.SYS_INT_SourceRestore
                0x00000000       0x20 build/Artemis_PDU/production/_ext/1813730513/sys_int.o
 .text          0x00000000        0x0 build/Artemis_PDU/production/_ext/1304864151/sys_time.o
 .data          0x00000000        0x0 build/Artemis_PDU/production/_ext/1304864151/sys_time.o
 .bss           0x00000000        0x0 build/Artemis_PDU/production/_ext/1304864151/sys_time.o
 .text.SYS_TIME_Deinitialize
                0x00000000       0x30 build/Artemis_PDU/production/_ext/1304864151/sys_time.o
 .text.SYS_TIME_Status
                0x00000000       0x14 build/Artemis_PDU/production/_ext/1304864151/sys_time.o
 .text.SYS_TIME_FrequencyGet
                0x00000000        0xc build/Artemis_PDU/production/_ext/1304864151/sys_time.o
 .text.SYS_TIME_Counter64Get
                0x00000000       0x2c build/Artemis_PDU/production/_ext/1304864151/sys_time.o
 .text.SYS_TIME_CounterGet
                0x00000000        0x8 build/Artemis_PDU/production/_ext/1304864151/sys_time.o
 .text.SYS_TIME_CounterSet
                0x00000000       0x20 build/Artemis_PDU/production/_ext/1304864151/sys_time.o
 .text.SYS_TIME_CountToUS
                0x00000000       0x44 build/Artemis_PDU/production/_ext/1304864151/sys_time.o
 .text.SYS_TIME_CountToMS
                0x00000000       0x3c build/Artemis_PDU/production/_ext/1304864151/sys_time.o
 .text.SYS_TIME_USToCount
                0x00000000       0x1c build/Artemis_PDU/production/_ext/1304864151/sys_time.o
 .text.SYS_TIME_MSToCount
                0x00000000       0x1c build/Artemis_PDU/production/_ext/1304864151/sys_time.o
 .text.SYS_TIME_TimerCreate
                0x00000000       0x1c build/Artemis_PDU/production/_ext/1304864151/sys_time.o
 .text.SYS_TIME_TimerReload
                0x00000000       0x80 build/Artemis_PDU/production/_ext/1304864151/sys_time.o
 .text.SYS_TIME_TimerStop
                0x00000000       0x3c build/Artemis_PDU/production/_ext/1304864151/sys_time.o
 .text.SYS_TIME_TimerCounterGet
                0x00000000       0x6c build/Artemis_PDU/production/_ext/1304864151/sys_time.o
 .text.SYS_TIME_TimerPeriodHasExpired
                0x00000000       0x28 build/Artemis_PDU/production/_ext/1304864151/sys_time.o
 .text.SYS_TIME_DelayUS
                0x00000000       0x50 build/Artemis_PDU/production/_ext/1304864151/sys_time.o
 .text.SYS_TIME_DelayMS
                0x00000000       0x50 build/Artemis_PDU/production/_ext/1304864151/sys_time.o
 .text.SYS_TIME_DelayIsComplete
                0x00000000       0x18 build/Artemis_PDU/production/_ext/1304864151/sys_time.o
 .text.SYS_TIME_CallbackRegisterUS
                0x00000000       0x58 build/Artemis_PDU/production/_ext/1304864151/sys_time.o
 .text          0x00000000        0x0 build/Artemis_PDU/production/_ext/974488028/initialization.o
 .data          0x00000000        0x0 build/Artemis_PDU/production/_ext/974488028/initialization.o
 .bss           0x00000000        0x0 build/Artemis_PDU/production/_ext/974488028/initialization.o
 .text          0x00000000        0x0 build/Artemis_PDU/production/_ext/974488028/interrupts.o
 .data          0x00000000        0x0 build/Artemis_PDU/production/_ext/974488028/interrupts.o
 .bss           0x00000000        0x0 build/Artemis_PDU/production/_ext/974488028/interrupts.o
 .text          0x00000000        0x0 build/Artemis_PDU/production/_ext/974488028/exceptions.o
 .data          0x00000000        0x0 build/Artemis_PDU/production/_ext/974488028/exceptions.o
 .bss           0x00000000        0x0 build/Artemis_PDU/production/_ext/974488028/exceptions.o
 .text          0x00000000        0x0 build/Artemis_PDU/production/_ext/974488028/startup_xc32.o
 .data          0x00000000        0x0 build/Artemis_PDU/production/_ext/974488028/startup_xc32.o
 .bss           0x00000000        0x0 build/Artemis_PDU/production/_ext/974488028/startup_xc32.o
 .text          0x00000000        0x0 build/Artemis_PDU/production/_ext/974488028/libc_syscalls.o
 .data          0x00000000        0x0 build/Artemis_PDU/production/_ext/974488028/libc_syscalls.o
 .bss           0x00000000        0x0 build/Artemis_PDU/production/_ext/974488028/libc_syscalls.o
 .text._exit    0x00000000        0x2 build/Artemis_PDU/production/_ext/974488028/libc_syscalls.o
 .debug_info    0x00000000      0x3cb build/Artemis_PDU/production/_ext/974488028/libc_syscalls.o
 .debug_abbrev  0x00000000       0xb6 build/Artemis_PDU/production/_ext/974488028/libc_syscalls.o
 .debug_loc     0x00000000       0x15 build/Artemis_PDU/production/_ext/974488028/libc_syscalls.o
 .debug_aranges
                0x00000000       0x20 build/Artemis_PDU/production/_ext/974488028/libc_syscalls.o
 .debug_ranges  0x00000000       0x10 build/Artemis_PDU/production/_ext/974488028/libc_syscalls.o
 .debug_line    0x00000000      0x125 build/Artemis_PDU/production/_ext/974488028/libc_syscalls.o
 .debug_str     0x00000000        0x0 build/Artemis_PDU/production/_ext/974488028/libc_syscalls.o
 .comment       0x00000000       0x54 build/Artemis_PDU/production/_ext/974488028/libc_syscalls.o
 .debug_frame   0x00000000       0x20 build/Artemis_PDU/production/_ext/974488028/libc_syscalls.o
 .ARM.attributes
                0x00000000       0x34 build/Artemis_PDU/production/_ext/974488028/libc_syscalls.o
 .text          0x00000000        0x0 build/Artemis_PDU/production/_ext/974488028/freertos_hooks.o
 .data          0x00000000        0x0 build/Artemis_PDU/production/_ext/974488028/freertos_hooks.o
 .bss           0x00000000        0x0 build/Artemis_PDU/production/_ext/974488028/freertos_hooks.o
 .text.vApplicationIdleHook
                0x00000000        0x2 build/Artemis_PDU/production/_ext/974488028/freertos_hooks.o
 .text.vApplicationTickHook
                0x00000000        0x2 build/Artemis_PDU/production/_ext/974488028/freertos_hooks.o
 .text.vAssertCalled
                0x00000000       0x1c build/Artemis_PDU/production/_ext/974488028/freertos_hooks.o
 .text          0x00000000        0x0 build/Artemis_PDU/production/_ext/974488028/tasks.o
 .data          0x00000000        0x0 build/Artemis_PDU/production/_ext/974488028/tasks.o
 .bss           0x00000000        0x0 build/Artemis_PDU/production/_ext/974488028/tasks.o
 .text          0x00000000        0x0 build/Artemis_PDU/production/_ext/246609638/port.o
 .data          0x00000000        0x0 build/Artemis_PDU/production/_ext/246609638/port.o
 .bss           0x00000000        0x0 build/Artemis_PDU/production/_ext/246609638/port.o
 .text.vPortEndScheduler
                0x00000000        0x2 build/Artemis_PDU/production/_ext/246609638/port.o
 .text          0x00000000        0x0 build/Artemis_PDU/production/_ext/1665200909/heap_1.o
 .data          0x00000000        0x0 build/Artemis_PDU/production/_ext/1665200909/heap_1.o
 .bss           0x00000000        0x0 build/Artemis_PDU/production/_ext/1665200909/heap_1.o
 .text.vPortInitialiseBlocks
                0x00000000        0xc build/Artemis_PDU/production/_ext/1665200909/heap_1.o
 .text.xPortGetFreeHeapSize
                0x00000000       0x10 build/Artemis_PDU/production/_ext/1665200909/heap_1.o
 .text          0x00000000        0x0 build/Artemis_PDU/production/_ext/404212886/croutine.o
 .data          0x00000000        0x0 build/Artemis_PDU/production/_ext/404212886/croutine.o
 .bss           0x00000000        0x0 build/Artemis_PDU/production/_ext/404212886/croutine.o
 .debug_info    0x00000000      0x310 build/Artemis_PDU/production/_ext/404212886/croutine.o
 .debug_abbrev  0x00000000       0x1b build/Artemis_PDU/production/_ext/404212886/croutine.o
 .debug_aranges
                0x00000000       0x18 build/Artemis_PDU/production/_ext/404212886/croutine.o
 .debug_line    0x00000000       0x1d build/Artemis_PDU/production/_ext/404212886/croutine.o
 .debug_str     0x00000000        0x0 build/Artemis_PDU/production/_ext/404212886/croutine.o
 .comment       0x00000000       0x54 build/Artemis_PDU/production/_ext/404212886/croutine.o
 .ARM.attributes
                0x00000000       0x39 build/Artemis_PDU/production/_ext/404212886/croutine.o
 .text          0x00000000        0x0 build/Artemis_PDU/production/_ext/404212886/list.o
 .data          0x00000000        0x0 build/Artemis_PDU/production/_ext/404212886/list.o
 .bss           0x00000000        0x0 build/Artemis_PDU/production/_ext/404212886/list.o
 .text          0x00000000        0x0 build/Artemis_PDU/production/_ext/404212886/queue.o
 .data          0x00000000        0x0 build/Artemis_PDU/production/_ext/404212886/queue.o
 .bss           0x00000000        0x0 build/Artemis_PDU/production/_ext/404212886/queue.o
 .text.prvCopyDataFromQueue
                0x00000000       0x24 build/Artemis_PDU/production/_ext/404212886/queue.o
 .text.xQueueGenericSendFromISR
                0x00000000       0x70 build/Artemis_PDU/production/_ext/404212886/queue.o
 .text.xQueueReceive
                0x00000000      0x110 build/Artemis_PDU/production/_ext/404212886/queue.o
 .text.xQueuePeek
                0x00000000      0x10c build/Artemis_PDU/production/_ext/404212886/queue.o
 .text.xQueueReceiveFromISR
                0x00000000       0x72 build/Artemis_PDU/production/_ext/404212886/queue.o
 .text.xQueuePeekFromISR
                0x00000000       0x30 build/Artemis_PDU/production/_ext/404212886/queue.o
 .text.uxQueueMessagesWaiting
                0x00000000       0x12 build/Artemis_PDU/production/_ext/404212886/queue.o
 .text.uxQueueSpacesAvailable
                0x00000000       0x16 build/Artemis_PDU/production/_ext/404212886/queue.o
 .text.uxQueueMessagesWaitingFromISR
                0x00000000        0x4 build/Artemis_PDU/production/_ext/404212886/queue.o
 .text.vQueueDelete
                0x00000000        0x8 build/Artemis_PDU/production/_ext/404212886/queue.o
 .text.xQueueIsQueueEmptyFromISR
                0x00000000        0xa build/Artemis_PDU/production/_ext/404212886/queue.o
 .text.xQueueIsQueueFullFromISR
                0x00000000        0xe build/Artemis_PDU/production/_ext/404212886/queue.o
 .text          0x00000000        0x0 build/Artemis_PDU/production/_ext/404212886/FreeRTOS_tasks.o
 .data          0x00000000        0x0 build/Artemis_PDU/production/_ext/404212886/FreeRTOS_tasks.o
 .bss           0x00000000        0x0 build/Artemis_PDU/production/_ext/404212886/FreeRTOS_tasks.o
 .text.vTaskDelete
                0x00000000       0xcc build/Artemis_PDU/production/_ext/404212886/FreeRTOS_tasks.o
 .text.uxTaskPriorityGet
                0x00000000       0x20 build/Artemis_PDU/production/_ext/404212886/FreeRTOS_tasks.o
 .text.uxTaskPriorityGetFromISR
                0x00000000       0x28 build/Artemis_PDU/production/_ext/404212886/FreeRTOS_tasks.o
 .text.vTaskPrioritySet
                0x00000000       0xd0 build/Artemis_PDU/production/_ext/404212886/FreeRTOS_tasks.o
 .text.vTaskResume
                0x00000000       0x88 build/Artemis_PDU/production/_ext/404212886/FreeRTOS_tasks.o
 .text.vTaskEndScheduler
                0x00000000       0x24 build/Artemis_PDU/production/_ext/404212886/FreeRTOS_tasks.o
 .text.xTaskGetTickCount
                0x00000000        0xc build/Artemis_PDU/production/_ext/404212886/FreeRTOS_tasks.o
 .text.xTaskGetTickCountFromISR
                0x00000000        0xc build/Artemis_PDU/production/_ext/404212886/FreeRTOS_tasks.o
 .text.uxTaskGetNumberOfTasks
                0x00000000        0xc build/Artemis_PDU/production/_ext/404212886/FreeRTOS_tasks.o
 .text.pcTaskGetName
                0x00000000       0x14 build/Artemis_PDU/production/_ext/404212886/FreeRTOS_tasks.o
 .text.vTaskDelayUntil
                0x00000000       0x60 build/Artemis_PDU/production/_ext/404212886/FreeRTOS_tasks.o
 .text.xTaskCatchUpTicks
                0x00000000       0x1c build/Artemis_PDU/production/_ext/404212886/FreeRTOS_tasks.o
 .text.vTaskSuspend
                0x00000000       0xcc build/Artemis_PDU/production/_ext/404212886/FreeRTOS_tasks.o
 .text.vTaskPlaceOnUnorderedEventList
                0x00000000       0x24 build/Artemis_PDU/production/_ext/404212886/FreeRTOS_tasks.o
 .text.vTaskRemoveFromUnorderedEventList
                0x00000000       0x58 build/Artemis_PDU/production/_ext/404212886/FreeRTOS_tasks.o
 .text.vTaskSetTimeOutState
                0x00000000       0x24 build/Artemis_PDU/production/_ext/404212886/FreeRTOS_tasks.o
 .text.xTaskGetCurrentTaskHandle
                0x00000000        0xc build/Artemis_PDU/production/_ext/404212886/FreeRTOS_tasks.o
 .text.uxTaskResetEventItemValue
                0x00000000       0x18 build/Artemis_PDU/production/_ext/404212886/FreeRTOS_tasks.o
 .text.ulTaskNotifyTake
                0x00000000       0x78 build/Artemis_PDU/production/_ext/404212886/FreeRTOS_tasks.o
 .text.xTaskNotifyWait
                0x00000000       0x98 build/Artemis_PDU/production/_ext/404212886/FreeRTOS_tasks.o
 .text.xTaskGenericNotify
                0x00000000       0xb4 build/Artemis_PDU/production/_ext/404212886/FreeRTOS_tasks.o
 .text.xTaskGenericNotifyFromISR
                0x00000000       0xd4 build/Artemis_PDU/production/_ext/404212886/FreeRTOS_tasks.o
 .text.vTaskNotifyGiveFromISR
                0x00000000       0xa0 build/Artemis_PDU/production/_ext/404212886/FreeRTOS_tasks.o
 .text.xTaskNotifyStateClear
                0x00000000       0x30 build/Artemis_PDU/production/_ext/404212886/FreeRTOS_tasks.o
 .text.ulTaskNotifyValueClear
                0x00000000       0x2c build/Artemis_PDU/production/_ext/404212886/FreeRTOS_tasks.o
 .text          0x00000000        0x0 build/Artemis_PDU/production/_ext/404212886/timers.o
 .data          0x00000000        0x0 build/Artemis_PDU/production/_ext/404212886/timers.o
 .bss           0x00000000        0x0 build/Artemis_PDU/production/_ext/404212886/timers.o
 .debug_info    0x00000000      0x30e build/Artemis_PDU/production/_ext/404212886/timers.o
 .debug_abbrev  0x00000000       0x1b build/Artemis_PDU/production/_ext/404212886/timers.o
 .debug_aranges
                0x00000000       0x18 build/Artemis_PDU/production/_ext/404212886/timers.o
 .debug_line    0x00000000       0x1d build/Artemis_PDU/production/_ext/404212886/timers.o
 .debug_str     0x00000000        0x0 build/Artemis_PDU/production/_ext/404212886/timers.o
 .comment       0x00000000       0x54 build/Artemis_PDU/production/_ext/404212886/timers.o
 .ARM.attributes
                0x00000000       0x39 build/Artemis_PDU/production/_ext/404212886/timers.o
 .text          0x00000000        0x0 build/Artemis_PDU/production/_ext/404212886/event_groups.o
 .data          0x00000000        0x0 build/Artemis_PDU/production/_ext/404212886/event_groups.o
 .bss           0x00000000        0x0 build/Artemis_PDU/production/_ext/404212886/event_groups.o
 .text.xEventGroupCreate
                0x00000000       0x1a build/Artemis_PDU/production/_ext/404212886/event_groups.o
 .text.xEventGroupWaitBits
                0x00000000       0xc0 build/Artemis_PDU/production/_ext/404212886/event_groups.o
 .text.xEventGroupClearBits
                0x00000000       0x1a build/Artemis_PDU/production/_ext/404212886/event_groups.o
 .text.xEventGroupGetBitsFromISR
                0x00000000       0x1c build/Artemis_PDU/production/_ext/404212886/event_groups.o
 .text.xEventGroupSetBits
                0x00000000       0x66 build/Artemis_PDU/production/_ext/404212886/event_groups.o
 .text.xEventGroupSync
                0x00000000       0x90 build/Artemis_PDU/production/_ext/404212886/event_groups.o
 .text.vEventGroupDelete
                0x00000000       0x2a build/Artemis_PDU/production/_ext/404212886/event_groups.o
 .text.vEventGroupSetBitsCallback
                0x00000000        0x8 build/Artemis_PDU/production/_ext/404212886/event_groups.o
 .text.vEventGroupClearBitsCallback
                0x00000000        0x8 build/Artemis_PDU/production/_ext/404212886/event_groups.o
 .debug_info    0x00000000      0xf93 build/Artemis_PDU/production/_ext/404212886/event_groups.o
 .debug_abbrev  0x00000000      0x2ef build/Artemis_PDU/production/_ext/404212886/event_groups.o
 .debug_loc     0x00000000      0xac5 build/Artemis_PDU/production/_ext/404212886/event_groups.o
 .debug_aranges
                0x00000000       0x60 build/Artemis_PDU/production/_ext/404212886/event_groups.o
 .debug_ranges  0x00000000       0x98 build/Artemis_PDU/production/_ext/404212886/event_groups.o
 .debug_line    0x00000000      0x5d0 build/Artemis_PDU/production/_ext/404212886/event_groups.o
 .debug_str     0x00000000      0x1ac build/Artemis_PDU/production/_ext/404212886/event_groups.o
 .comment       0x00000000       0x54 build/Artemis_PDU/production/_ext/404212886/event_groups.o
 .debug_frame   0x00000000      0x100 build/Artemis_PDU/production/_ext/404212886/event_groups.o
 .ARM.attributes
                0x00000000       0x34 build/Artemis_PDU/production/_ext/404212886/event_groups.o
 .text          0x00000000        0x0 build/Artemis_PDU/production/_ext/404212886/stream_buffer.o
 .data          0x00000000        0x0 build/Artemis_PDU/production/_ext/404212886/stream_buffer.o
 .bss           0x00000000        0x0 build/Artemis_PDU/production/_ext/404212886/stream_buffer.o
 .text.prvBytesInBuffer
                0x00000000       0x12 build/Artemis_PDU/production/_ext/404212886/stream_buffer.o
 .text.prvWriteBytesToBuffer
                0x00000000       0x44 build/Artemis_PDU/production/_ext/404212886/stream_buffer.o
 .text.prvReadBytesFromBuffer
                0x00000000       0x50 build/Artemis_PDU/production/_ext/404212886/stream_buffer.o
 .text.xStreamBufferGenericCreate
                0x00000000       0x38 build/Artemis_PDU/production/_ext/404212886/stream_buffer.o
 .text.vStreamBufferDelete
                0x00000000       0x1a build/Artemis_PDU/production/_ext/404212886/stream_buffer.o
 .text.xStreamBufferReset
                0x00000000       0x44 build/Artemis_PDU/production/_ext/404212886/stream_buffer.o
 .text.xStreamBufferSetTriggerLevel
                0x00000000       0x14 build/Artemis_PDU/production/_ext/404212886/stream_buffer.o
 .text.xStreamBufferSpacesAvailable
                0x00000000       0x14 build/Artemis_PDU/production/_ext/404212886/stream_buffer.o
 .text.xStreamBufferBytesAvailable
                0x00000000        0x8 build/Artemis_PDU/production/_ext/404212886/stream_buffer.o
 .text.xStreamBufferSend
                0x00000000       0xde build/Artemis_PDU/production/_ext/404212886/stream_buffer.o
 .text.xStreamBufferSendFromISR
                0x00000000       0x98 build/Artemis_PDU/production/_ext/404212886/stream_buffer.o
 .text.xStreamBufferReceive
                0x00000000       0xbe build/Artemis_PDU/production/_ext/404212886/stream_buffer.o
 .text.xStreamBufferNextMessageLengthBytes
                0x00000000       0x36 build/Artemis_PDU/production/_ext/404212886/stream_buffer.o
 .text.xStreamBufferReceiveFromISR
                0x00000000       0x98 build/Artemis_PDU/production/_ext/404212886/stream_buffer.o
 .text.xStreamBufferIsEmpty
                0x00000000        0xe build/Artemis_PDU/production/_ext/404212886/stream_buffer.o
 .text.xStreamBufferIsFull
                0x00000000       0x18 build/Artemis_PDU/production/_ext/404212886/stream_buffer.o
 .text.xStreamBufferSendCompletedFromISR
                0x00000000       0x3e build/Artemis_PDU/production/_ext/404212886/stream_buffer.o
 .text.xStreamBufferReceiveCompletedFromISR
                0x00000000       0x3e build/Artemis_PDU/production/_ext/404212886/stream_buffer.o
 .debug_info    0x00000000     0x1d94 build/Artemis_PDU/production/_ext/404212886/stream_buffer.o
 .debug_abbrev  0x00000000      0x39f build/Artemis_PDU/production/_ext/404212886/stream_buffer.o
 .debug_loc     0x00000000     0x1b36 build/Artemis_PDU/production/_ext/404212886/stream_buffer.o
 .debug_aranges
                0x00000000       0xa8 build/Artemis_PDU/production/_ext/404212886/stream_buffer.o
 .debug_ranges  0x00000000      0x128 build/Artemis_PDU/production/_ext/404212886/stream_buffer.o
 .debug_line    0x00000000      0xb3d build/Artemis_PDU/production/_ext/404212886/stream_buffer.o
 .debug_str     0x00000000      0x234 build/Artemis_PDU/production/_ext/404212886/stream_buffer.o
 .comment       0x00000000       0x54 build/Artemis_PDU/production/_ext/404212886/stream_buffer.o
 .debug_frame   0x00000000      0x230 build/Artemis_PDU/production/_ext/404212886/stream_buffer.o
 .ARM.attributes
                0x00000000       0x34 build/Artemis_PDU/production/_ext/404212886/stream_buffer.o
 .text          0x00000000        0x0 build/Artemis_PDU/production/_ext/1360937237/main.o
 .data          0x00000000        0x0 build/Artemis_PDU/production/_ext/1360937237/main.o
 .bss           0x00000000        0x0 build/Artemis_PDU/production/_ext/1360937237/main.o
 .text          0x00000000        0x0 build/Artemis_PDU/production/_ext/1360937237/app.o
 .data          0x00000000        0x0 build/Artemis_PDU/production/_ext/1360937237/app.o
 .bss           0x00000000        0x0 build/Artemis_PDU/production/_ext/1360937237/app.o
 .text.delay_ms
                0x00000000       0x12 build/Artemis_PDU/production/_ext/1360937237/app.o
 .data.APP_INIT_MSG
                0x00000000       0x14 build/Artemis_PDU/production/_ext/1360937237/app.o
 .data.errorMessage
                0x00000000       0x27 build/Artemis_PDU/production/_ext/1360937237/app.o
 .text          0x00000000        0x0 c:/program files/microchip/xc32/v4.00/bin/bin/../../lib/gcc/pic32c/8.3.1/../../../../pic32c/lib/thumb/v7e-m+fp/hard\libpic32c.a(data_init.o)
 .data          0x00000000        0x0 c:/program files/microchip/xc32/v4.00/bin/bin/../../lib/gcc/pic32c/8.3.1/../../../../pic32c/lib/thumb/v7e-m+fp/hard\libpic32c.a(data_init.o)
 .xc_stack_usage
                0x00000000       0x2a c:/program files/microchip/xc32/v4.00/bin/bin/../../lib/gcc/pic32c/8.3.1/../../../../pic32c/lib/thumb/v7e-m+fp/hard\libpic32c.a(data_init.o)
 .xc_stack_usage.hdr
                0x00000000        0xe c:/program files/microchip/xc32/v4.00/bin/bin/../../lib/gcc/pic32c/8.3.1/../../../../pic32c/lib/thumb/v7e-m+fp/hard\libpic32c.a(data_init.o)
 .text          0x00000000        0x0 c:/program files/microchip/xc32/v4.00/bin/bin/../../lib/gcc/pic32c/8.3.1/../../../../pic32c/lib/thumb/v7e-m+fp/hard\libc-musl.a(__libc_start_main.o)
 .data          0x00000000        0x0 c:/program files/microchip/xc32/v4.00/bin/bin/../../lib/gcc/pic32c/8.3.1/../../../../pic32c/lib/thumb/v7e-m+fp/hard\libc-musl.a(__libc_start_main.o)
 .bss           0x00000000        0x0 c:/program files/microchip/xc32/v4.00/bin/bin/../../lib/gcc/pic32c/8.3.1/../../../../pic32c/lib/thumb/v7e-m+fp/hard\libc-musl.a(__libc_start_main.o)
 .xc_stack_usage
                0x00000000       0x34 c:/program files/microchip/xc32/v4.00/bin/bin/../../lib/gcc/pic32c/8.3.1/../../../../pic32c/lib/thumb/v7e-m+fp/hard\libc-musl.a(__libc_start_main.o)
 .xc_stack_usage.hdr
                0x00000000        0xe c:/program files/microchip/xc32/v4.00/bin/bin/../../lib/gcc/pic32c/8.3.1/../../../../pic32c/lib/thumb/v7e-m+fp/hard\libc-musl.a(__libc_start_main.o)
 .text          0x00000000        0x0 c:/program files/microchip/xc32/v4.00/bin/bin/../../lib/gcc/pic32c/8.3.1/../../../../pic32c/lib/thumb/v7e-m+fp/hard\libc-musl.a(libc.o)
 .data          0x00000000        0x0 c:/program files/microchip/xc32/v4.00/bin/bin/../../lib/gcc/pic32c/8.3.1/../../../../pic32c/lib/thumb/v7e-m+fp/hard\libc-musl.a(libc.o)
 .xc_stack_usage.hdr
                0x00000000        0xe c:/program files/microchip/xc32/v4.00/bin/bin/../../lib/gcc/pic32c/8.3.1/../../../../pic32c/lib/thumb/v7e-m+fp/hard\libc-musl.a(libc.o)
 .text          0x00000000        0x0 c:/program files/microchip/xc32/v4.00/bin/bin/../../lib/gcc/pic32c/8.3.1/../../../../pic32c/lib/thumb/v7e-m+fp/hard\libc-musl.a(memcmp.o)
 .data          0x00000000        0x0 c:/program files/microchip/xc32/v4.00/bin/bin/../../lib/gcc/pic32c/8.3.1/../../../../pic32c/lib/thumb/v7e-m+fp/hard\libc-musl.a(memcmp.o)
 .bss           0x00000000        0x0 c:/program files/microchip/xc32/v4.00/bin/bin/../../lib/gcc/pic32c/8.3.1/../../../../pic32c/lib/thumb/v7e-m+fp/hard\libc-musl.a(memcmp.o)
 .xc_stack_usage
                0x00000000       0x14 c:/program files/microchip/xc32/v4.00/bin/bin/../../lib/gcc/pic32c/8.3.1/../../../../pic32c/lib/thumb/v7e-m+fp/hard\libc-musl.a(memcmp.o)
 .xc_stack_usage.hdr
                0x00000000        0xe c:/program files/microchip/xc32/v4.00/bin/bin/../../lib/gcc/pic32c/8.3.1/../../../../pic32c/lib/thumb/v7e-m+fp/hard\libc-musl.a(memcmp.o)
 .text          0x00000000        0x0 c:/program files/microchip/xc32/v4.00/bin/bin/../../lib/gcc/pic32c/8.3.1/../../../../pic32c/lib/thumb/v7e-m+fp/hard\libc-musl.a(memcpy.o)
 .data          0x00000000        0x0 c:/program files/microchip/xc32/v4.00/bin/bin/../../lib/gcc/pic32c/8.3.1/../../../../pic32c/lib/thumb/v7e-m+fp/hard\libc-musl.a(memcpy.o)
 .bss           0x00000000        0x0 c:/program files/microchip/xc32/v4.00/bin/bin/../../lib/gcc/pic32c/8.3.1/../../../../pic32c/lib/thumb/v7e-m+fp/hard\libc-musl.a(memcpy.o)
 .xc_stack_usage
                0x00000000       0x14 c:/program files/microchip/xc32/v4.00/bin/bin/../../lib/gcc/pic32c/8.3.1/../../../../pic32c/lib/thumb/v7e-m+fp/hard\libc-musl.a(memcpy.o)
 .xc_stack_usage.hdr
                0x00000000        0xe c:/program files/microchip/xc32/v4.00/bin/bin/../../lib/gcc/pic32c/8.3.1/../../../../pic32c/lib/thumb/v7e-m+fp/hard\libc-musl.a(memcpy.o)
 .text          0x00000000        0x0 c:/program files/microchip/xc32/v4.00/bin/bin/../../lib/gcc/pic32c/8.3.1/../../../../pic32c/lib/thumb/v7e-m+fp/hard\libc-musl.a(memset.o)
 .data          0x00000000        0x0 c:/program files/microchip/xc32/v4.00/bin/bin/../../lib/gcc/pic32c/8.3.1/../../../../pic32c/lib/thumb/v7e-m+fp/hard\libc-musl.a(memset.o)
 .bss           0x00000000        0x0 c:/program files/microchip/xc32/v4.00/bin/bin/../../lib/gcc/pic32c/8.3.1/../../../../pic32c/lib/thumb/v7e-m+fp/hard\libc-musl.a(memset.o)
 .xc_stack_usage
                0x00000000       0x14 c:/program files/microchip/xc32/v4.00/bin/bin/../../lib/gcc/pic32c/8.3.1/../../../../pic32c/lib/thumb/v7e-m+fp/hard\libc-musl.a(memset.o)
 .xc_stack_usage.hdr
                0x00000000        0xe c:/program files/microchip/xc32/v4.00/bin/bin/../../lib/gcc/pic32c/8.3.1/../../../../pic32c/lib/thumb/v7e-m+fp/hard\libc-musl.a(memset.o)
 .text          0x00000000        0x0 c:/program files/microchip/xc32/v4.00/bin/bin/../../lib/gcc/pic32c/8.3.1/../../../../pic32c/lib/thumb/v7e-m+fp/hard\libc-musl.a(strlen.o)
 .data          0x00000000        0x0 c:/program files/microchip/xc32/v4.00/bin/bin/../../lib/gcc/pic32c/8.3.1/../../../../pic32c/lib/thumb/v7e-m+fp/hard\libc-musl.a(strlen.o)
 .bss           0x00000000        0x0 c:/program files/microchip/xc32/v4.00/bin/bin/../../lib/gcc/pic32c/8.3.1/../../../../pic32c/lib/thumb/v7e-m+fp/hard\libc-musl.a(strlen.o)
 .xc_stack_usage
                0x00000000       0x14 c:/program files/microchip/xc32/v4.00/bin/bin/../../lib/gcc/pic32c/8.3.1/../../../../pic32c/lib/thumb/v7e-m+fp/hard\libc-musl.a(strlen.o)
 .xc_stack_usage.hdr
                0x00000000        0xe c:/program files/microchip/xc32/v4.00/bin/bin/../../lib/gcc/pic32c/8.3.1/../../../../pic32c/lib/thumb/v7e-m+fp/hard\libc-musl.a(strlen.o)
 .text          0x00000000        0x0 c:/program files/microchip/xc32/v4.00/bin/bin/../../lib/gcc/pic32c/8.3.1/../../../../pic32c/lib/thumb/v7e-m+fp/hard\libc-musl.a(strstr.o)
 .data          0x00000000        0x0 c:/program files/microchip/xc32/v4.00/bin/bin/../../lib/gcc/pic32c/8.3.1/../../../../pic32c/lib/thumb/v7e-m+fp/hard\libc-musl.a(strstr.o)
 .bss           0x00000000        0x0 c:/program files/microchip/xc32/v4.00/bin/bin/../../lib/gcc/pic32c/8.3.1/../../../../pic32c/lib/thumb/v7e-m+fp/hard\libc-musl.a(strstr.o)
 .xc_stack_usage
                0x00000000       0x14 c:/program files/microchip/xc32/v4.00/bin/bin/../../lib/gcc/pic32c/8.3.1/../../../../pic32c/lib/thumb/v7e-m+fp/hard\libc-musl.a(strstr.o)
 .xc_stack_usage.hdr
                0x00000000        0xe c:/program files/microchip/xc32/v4.00/bin/bin/../../lib/gcc/pic32c/8.3.1/../../../../pic32c/lib/thumb/v7e-m+fp/hard\libc-musl.a(strstr.o)
 .text          0x00000000        0x0 c:/program files/microchip/xc32/v4.00/bin/bin/../../lib/gcc/pic32c/8.3.1/../../../../pic32c/lib/thumb/v7e-m+fp/hard\libc-musl.a(strcmp.o)
 .data          0x00000000        0x0 c:/program files/microchip/xc32/v4.00/bin/bin/../../lib/gcc/pic32c/8.3.1/../../../../pic32c/lib/thumb/v7e-m+fp/hard\libc-musl.a(strcmp.o)
 .bss           0x00000000        0x0 c:/program files/microchip/xc32/v4.00/bin/bin/../../lib/gcc/pic32c/8.3.1/../../../../pic32c/lib/thumb/v7e-m+fp/hard\libc-musl.a(strcmp.o)
 .xc_stack_usage
                0x00000000       0x14 c:/program files/microchip/xc32/v4.00/bin/bin/../../lib/gcc/pic32c/8.3.1/../../../../pic32c/lib/thumb/v7e-m+fp/hard\libc-musl.a(strcmp.o)
 .text.strcmp   0x00000000       0x18 c:/program files/microchip/xc32/v4.00/bin/bin/../../lib/gcc/pic32c/8.3.1/../../../../pic32c/lib/thumb/v7e-m+fp/hard\libc-musl.a(strcmp.o)
 .xc_stack_usage.hdr
                0x00000000        0xe c:/program files/microchip/xc32/v4.00/bin/bin/../../lib/gcc/pic32c/8.3.1/../../../../pic32c/lib/thumb/v7e-m+fp/hard\libc-musl.a(strcmp.o)
 .debug_info    0x00000000      0x2b1 c:/program files/microchip/xc32/v4.00/bin/bin/../../lib/gcc/pic32c/8.3.1/../../../../pic32c/lib/thumb/v7e-m+fp/hard\libc-musl.a(strcmp.o)
 .debug_abbrev  0x00000000       0x63 c:/program files/microchip/xc32/v4.00/bin/bin/../../lib/gcc/pic32c/8.3.1/../../../../pic32c/lib/thumb/v7e-m+fp/hard\libc-musl.a(strcmp.o)
 .debug_loc     0x00000000       0x76 c:/program files/microchip/xc32/v4.00/bin/bin/../../lib/gcc/pic32c/8.3.1/../../../../pic32c/lib/thumb/v7e-m+fp/hard\libc-musl.a(strcmp.o)
 .debug_aranges
                0x00000000       0x20 c:/program files/microchip/xc32/v4.00/bin/bin/../../lib/gcc/pic32c/8.3.1/../../../../pic32c/lib/thumb/v7e-m+fp/hard\libc-musl.a(strcmp.o)
 .debug_ranges  0x00000000       0x10 c:/program files/microchip/xc32/v4.00/bin/bin/../../lib/gcc/pic32c/8.3.1/../../../../pic32c/lib/thumb/v7e-m+fp/hard\libc-musl.a(strcmp.o)
 .debug_line    0x00000000       0xbd c:/program files/microchip/xc32/v4.00/bin/bin/../../lib/gcc/pic32c/8.3.1/../../../../pic32c/lib/thumb/v7e-m+fp/hard\libc-musl.a(strcmp.o)
 .debug_str     0x00000000        0x0 c:/program files/microchip/xc32/v4.00/bin/bin/../../lib/gcc/pic32c/8.3.1/../../../../pic32c/lib/thumb/v7e-m+fp/hard\libc-musl.a(strcmp.o)
 .comment       0x00000000       0x54 c:/program files/microchip/xc32/v4.00/bin/bin/../../lib/gcc/pic32c/8.3.1/../../../../pic32c/lib/thumb/v7e-m+fp/hard\libc-musl.a(strcmp.o)
 .note.GNU-stack
                0x00000000        0x0 c:/program files/microchip/xc32/v4.00/bin/bin/../../lib/gcc/pic32c/8.3.1/../../../../pic32c/lib/thumb/v7e-m+fp/hard\libc-musl.a(strcmp.o)
 .debug_frame   0x00000000       0x20 c:/program files/microchip/xc32/v4.00/bin/bin/../../lib/gcc/pic32c/8.3.1/../../../../pic32c/lib/thumb/v7e-m+fp/hard\libc-musl.a(strcmp.o)
 .ARM.attributes
                0x00000000       0x36 c:/program files/microchip/xc32/v4.00/bin/bin/../../lib/gcc/pic32c/8.3.1/../../../../pic32c/lib/thumb/v7e-m+fp/hard\libc-musl.a(strcmp.o)
 .text          0x00000000        0x0 c:/program files/microchip/xc32/v4.00/bin/bin/../../lib/gcc/pic32c/8.3.1/../../../../pic32c/lib/thumb/v7e-m+fp/hard\libc-musl.a(strcpy.o)
 .data          0x00000000        0x0 c:/program files/microchip/xc32/v4.00/bin/bin/../../lib/gcc/pic32c/8.3.1/../../../../pic32c/lib/thumb/v7e-m+fp/hard\libc-musl.a(strcpy.o)
 .bss           0x00000000        0x0 c:/program files/microchip/xc32/v4.00/bin/bin/../../lib/gcc/pic32c/8.3.1/../../../../pic32c/lib/thumb/v7e-m+fp/hard\libc-musl.a(strcpy.o)
 .xc_stack_usage
                0x00000000       0x14 c:/program files/microchip/xc32/v4.00/bin/bin/../../lib/gcc/pic32c/8.3.1/../../../../pic32c/lib/thumb/v7e-m+fp/hard\libc-musl.a(strcpy.o)
 .text.strcpy   0x00000000        0xc c:/program files/microchip/xc32/v4.00/bin/bin/../../lib/gcc/pic32c/8.3.1/../../../../pic32c/lib/thumb/v7e-m+fp/hard\libc-musl.a(strcpy.o)
 .xc_stack_usage.hdr
                0x00000000        0xe c:/program files/microchip/xc32/v4.00/bin/bin/../../lib/gcc/pic32c/8.3.1/../../../../pic32c/lib/thumb/v7e-m+fp/hard\libc-musl.a(strcpy.o)
 .debug_info    0x00000000      0x2db c:/program files/microchip/xc32/v4.00/bin/bin/../../lib/gcc/pic32c/8.3.1/../../../../pic32c/lib/thumb/v7e-m+fp/hard\libc-musl.a(strcpy.o)
 .debug_abbrev  0x00000000       0x8e c:/program files/microchip/xc32/v4.00/bin/bin/../../lib/gcc/pic32c/8.3.1/../../../../pic32c/lib/thumb/v7e-m+fp/hard\libc-musl.a(strcpy.o)
 .debug_loc     0x00000000       0x67 c:/program files/microchip/xc32/v4.00/bin/bin/../../lib/gcc/pic32c/8.3.1/../../../../pic32c/lib/thumb/v7e-m+fp/hard\libc-musl.a(strcpy.o)
 .debug_aranges
                0x00000000       0x20 c:/program files/microchip/xc32/v4.00/bin/bin/../../lib/gcc/pic32c/8.3.1/../../../../pic32c/lib/thumb/v7e-m+fp/hard\libc-musl.a(strcpy.o)
 .debug_ranges  0x00000000       0x10 c:/program files/microchip/xc32/v4.00/bin/bin/../../lib/gcc/pic32c/8.3.1/../../../../pic32c/lib/thumb/v7e-m+fp/hard\libc-musl.a(strcpy.o)
 .debug_line    0x00000000       0xb5 c:/program files/microchip/xc32/v4.00/bin/bin/../../lib/gcc/pic32c/8.3.1/../../../../pic32c/lib/thumb/v7e-m+fp/hard\libc-musl.a(strcpy.o)
 .debug_str     0x00000000        0x9 c:/program files/microchip/xc32/v4.00/bin/bin/../../lib/gcc/pic32c/8.3.1/../../../../pic32c/lib/thumb/v7e-m+fp/hard\libc-musl.a(strcpy.o)
 .comment       0x00000000       0x54 c:/program files/microchip/xc32/v4.00/bin/bin/../../lib/gcc/pic32c/8.3.1/../../../../pic32c/lib/thumb/v7e-m+fp/hard\libc-musl.a(strcpy.o)
 .note.GNU-stack
                0x00000000        0x0 c:/program files/microchip/xc32/v4.00/bin/bin/../../lib/gcc/pic32c/8.3.1/../../../../pic32c/lib/thumb/v7e-m+fp/hard\libc-musl.a(strcpy.o)
 .debug_frame   0x00000000       0x28 c:/program files/microchip/xc32/v4.00/bin/bin/../../lib/gcc/pic32c/8.3.1/../../../../pic32c/lib/thumb/v7e-m+fp/hard\libc-musl.a(strcpy.o)
 .ARM.attributes
                0x00000000       0x36 c:/program files/microchip/xc32/v4.00/bin/bin/../../lib/gcc/pic32c/8.3.1/../../../../pic32c/lib/thumb/v7e-m+fp/hard\libc-musl.a(strcpy.o)
 .text          0x00000000        0x0 c:/program files/microchip/xc32/v4.00/bin/bin/../../lib/gcc/pic32c/8.3.1/../../../../pic32c/lib/thumb/v7e-m+fp/hard\libc-musl.a(strncmp.o)
 .data          0x00000000        0x0 c:/program files/microchip/xc32/v4.00/bin/bin/../../lib/gcc/pic32c/8.3.1/../../../../pic32c/lib/thumb/v7e-m+fp/hard\libc-musl.a(strncmp.o)
 .bss           0x00000000        0x0 c:/program files/microchip/xc32/v4.00/bin/bin/../../lib/gcc/pic32c/8.3.1/../../../../pic32c/lib/thumb/v7e-m+fp/hard\libc-musl.a(strncmp.o)
 .xc_stack_usage
                0x00000000       0x15 c:/program files/microchip/xc32/v4.00/bin/bin/../../lib/gcc/pic32c/8.3.1/../../../../pic32c/lib/thumb/v7e-m+fp/hard\libc-musl.a(strncmp.o)
 .text.strncmp  0x00000000       0x24 c:/program files/microchip/xc32/v4.00/bin/bin/../../lib/gcc/pic32c/8.3.1/../../../../pic32c/lib/thumb/v7e-m+fp/hard\libc-musl.a(strncmp.o)
 .xc_stack_usage.hdr
                0x00000000        0xe c:/program files/microchip/xc32/v4.00/bin/bin/../../lib/gcc/pic32c/8.3.1/../../../../pic32c/lib/thumb/v7e-m+fp/hard\libc-musl.a(strncmp.o)
 .debug_info    0x00000000      0x317 c:/program files/microchip/xc32/v4.00/bin/bin/../../lib/gcc/pic32c/8.3.1/../../../../pic32c/lib/thumb/v7e-m+fp/hard\libc-musl.a(strncmp.o)
 .debug_abbrev  0x00000000       0x86 c:/program files/microchip/xc32/v4.00/bin/bin/../../lib/gcc/pic32c/8.3.1/../../../../pic32c/lib/thumb/v7e-m+fp/hard\libc-musl.a(strncmp.o)
 .debug_loc     0x00000000      0x1a6 c:/program files/microchip/xc32/v4.00/bin/bin/../../lib/gcc/pic32c/8.3.1/../../../../pic32c/lib/thumb/v7e-m+fp/hard\libc-musl.a(strncmp.o)
 .debug_aranges
                0x00000000       0x20 c:/program files/microchip/xc32/v4.00/bin/bin/../../lib/gcc/pic32c/8.3.1/../../../../pic32c/lib/thumb/v7e-m+fp/hard\libc-musl.a(strncmp.o)
 .debug_ranges  0x00000000       0x10 c:/program files/microchip/xc32/v4.00/bin/bin/../../lib/gcc/pic32c/8.3.1/../../../../pic32c/lib/thumb/v7e-m+fp/hard\libc-musl.a(strncmp.o)
 .debug_line    0x00000000       0xee c:/program files/microchip/xc32/v4.00/bin/bin/../../lib/gcc/pic32c/8.3.1/../../../../pic32c/lib/thumb/v7e-m+fp/hard\libc-musl.a(strncmp.o)
 .debug_str     0x00000000        0x0 c:/program files/microchip/xc32/v4.00/bin/bin/../../lib/gcc/pic32c/8.3.1/../../../../pic32c/lib/thumb/v7e-m+fp/hard\libc-musl.a(strncmp.o)
 .comment       0x00000000       0x54 c:/program files/microchip/xc32/v4.00/bin/bin/../../lib/gcc/pic32c/8.3.1/../../../../pic32c/lib/thumb/v7e-m+fp/hard\libc-musl.a(strncmp.o)
 .note.GNU-stack
                0x00000000        0x0 c:/program files/microchip/xc32/v4.00/bin/bin/../../lib/gcc/pic32c/8.3.1/../../../../pic32c/lib/thumb/v7e-m+fp/hard\libc-musl.a(strncmp.o)
 .debug_frame   0x00000000       0x28 c:/program files/microchip/xc32/v4.00/bin/bin/../../lib/gcc/pic32c/8.3.1/../../../../pic32c/lib/thumb/v7e-m+fp/hard\libc-musl.a(strncmp.o)
 .ARM.attributes
                0x00000000       0x36 c:/program files/microchip/xc32/v4.00/bin/bin/../../lib/gcc/pic32c/8.3.1/../../../../pic32c/lib/thumb/v7e-m+fp/hard\libc-musl.a(strncmp.o)
 .text          0x00000000        0x0 c:/program files/microchip/xc32/v4.00/bin/bin/../../lib/gcc/pic32c/8.3.1/../../../../pic32c/lib/thumb/v7e-m+fp/hard\libc-musl.a(__environ.o)
 .data          0x00000000        0x0 c:/program files/microchip/xc32/v4.00/bin/bin/../../lib/gcc/pic32c/8.3.1/../../../../pic32c/lib/thumb/v7e-m+fp/hard\libc-musl.a(__environ.o)
 .xc_stack_usage.hdr
                0x00000000        0xe c:/program files/microchip/xc32/v4.00/bin/bin/../../lib/gcc/pic32c/8.3.1/../../../../pic32c/lib/thumb/v7e-m+fp/hard\libc-musl.a(__environ.o)
 .text          0x00000000        0x0 c:/program files/microchip/xc32/v4.00/bin/bin/../../lib/gcc/pic32c/8.3.1/../../../../pic32c/lib/thumb/v7e-m+fp/hard\libc-musl.a(stpcpy.o)
 .data          0x00000000        0x0 c:/program files/microchip/xc32/v4.00/bin/bin/../../lib/gcc/pic32c/8.3.1/../../../../pic32c/lib/thumb/v7e-m+fp/hard\libc-musl.a(stpcpy.o)
 .bss           0x00000000        0x0 c:/program files/microchip/xc32/v4.00/bin/bin/../../lib/gcc/pic32c/8.3.1/../../../../pic32c/lib/thumb/v7e-m+fp/hard\libc-musl.a(stpcpy.o)
 .xc_stack_usage
                0x00000000       0x14 c:/program files/microchip/xc32/v4.00/bin/bin/../../lib/gcc/pic32c/8.3.1/../../../../pic32c/lib/thumb/v7e-m+fp/hard\libc-musl.a(stpcpy.o)
 .text.stpcpy   0x00000000       0x12 c:/program files/microchip/xc32/v4.00/bin/bin/../../lib/gcc/pic32c/8.3.1/../../../../pic32c/lib/thumb/v7e-m+fp/hard\libc-musl.a(stpcpy.o)
 .xc_stack_usage.hdr
                0x00000000        0xe c:/program files/microchip/xc32/v4.00/bin/bin/../../lib/gcc/pic32c/8.3.1/../../../../pic32c/lib/thumb/v7e-m+fp/hard\libc-musl.a(stpcpy.o)
 .debug_info    0x00000000      0x5b9 c:/program files/microchip/xc32/v4.00/bin/bin/../../lib/gcc/pic32c/8.3.1/../../../../pic32c/lib/thumb/v7e-m+fp/hard\libc-musl.a(stpcpy.o)
 .debug_abbrev  0x00000000       0xdf c:/program files/microchip/xc32/v4.00/bin/bin/../../lib/gcc/pic32c/8.3.1/../../../../pic32c/lib/thumb/v7e-m+fp/hard\libc-musl.a(stpcpy.o)
 .debug_loc     0x00000000       0x60 c:/program files/microchip/xc32/v4.00/bin/bin/../../lib/gcc/pic32c/8.3.1/../../../../pic32c/lib/thumb/v7e-m+fp/hard\libc-musl.a(stpcpy.o)
 .debug_aranges
                0x00000000       0x20 c:/program files/microchip/xc32/v4.00/bin/bin/../../lib/gcc/pic32c/8.3.1/../../../../pic32c/lib/thumb/v7e-m+fp/hard\libc-musl.a(stpcpy.o)
 .debug_ranges  0x00000000       0x10 c:/program files/microchip/xc32/v4.00/bin/bin/../../lib/gcc/pic32c/8.3.1/../../../../pic32c/lib/thumb/v7e-m+fp/hard\libc-musl.a(stpcpy.o)
 .debug_line    0x00000000      0x1d4 c:/program files/microchip/xc32/v4.00/bin/bin/../../lib/gcc/pic32c/8.3.1/../../../../pic32c/lib/thumb/v7e-m+fp/hard\libc-musl.a(stpcpy.o)
 .debug_str     0x00000000        0x0 c:/program files/microchip/xc32/v4.00/bin/bin/../../lib/gcc/pic32c/8.3.1/../../../../pic32c/lib/thumb/v7e-m+fp/hard\libc-musl.a(stpcpy.o)
 .comment       0x00000000       0x54 c:/program files/microchip/xc32/v4.00/bin/bin/../../lib/gcc/pic32c/8.3.1/../../../../pic32c/lib/thumb/v7e-m+fp/hard\libc-musl.a(stpcpy.o)
 .note.GNU-stack
                0x00000000        0x0 c:/program files/microchip/xc32/v4.00/bin/bin/../../lib/gcc/pic32c/8.3.1/../../../../pic32c/lib/thumb/v7e-m+fp/hard\libc-musl.a(stpcpy.o)
 .debug_frame   0x00000000       0x20 c:/program files/microchip/xc32/v4.00/bin/bin/../../lib/gcc/pic32c/8.3.1/../../../../pic32c/lib/thumb/v7e-m+fp/hard\libc-musl.a(stpcpy.o)
 .ARM.attributes
                0x00000000       0x36 c:/program files/microchip/xc32/v4.00/bin/bin/../../lib/gcc/pic32c/8.3.1/../../../../pic32c/lib/thumb/v7e-m+fp/hard\libc-musl.a(stpcpy.o)
 .data          0x00000000        0x0 c:/program files/microchip/xc32/v4.00/bin/bin/../../lib/gcc/pic32c/8.3.1/thumb/v7e-m+fp/hard\libgcc.a(_aeabi_uldivmod.o)
 .bss           0x00000000        0x0 c:/program files/microchip/xc32/v4.00/bin/bin/../../lib/gcc/pic32c/8.3.1/thumb/v7e-m+fp/hard\libgcc.a(_aeabi_uldivmod.o)
 .xc_stack_usage.hdr
                0x00000000        0xe c:/program files/microchip/xc32/v4.00/bin/bin/../../lib/gcc/pic32c/8.3.1/thumb/v7e-m+fp/hard\libgcc.a(_aeabi_uldivmod.o)
 .xc_stack_usage
                0x00000000       0x1e c:/program files/microchip/xc32/v4.00/bin/bin/../../lib/gcc/pic32c/8.3.1/thumb/v7e-m+fp/hard\libgcc.a(_aeabi_uldivmod.o)
 .data          0x00000000        0x0 c:/program files/microchip/xc32/v4.00/bin/bin/../../lib/gcc/pic32c/8.3.1/thumb/v7e-m+fp/hard\libgcc.a(_udivmoddi4.o)
 .bss           0x00000000        0x0 c:/program files/microchip/xc32/v4.00/bin/bin/../../lib/gcc/pic32c/8.3.1/thumb/v7e-m+fp/hard\libgcc.a(_udivmoddi4.o)
 .xc_stack_usage
                0x00000000       0x1a c:/program files/microchip/xc32/v4.00/bin/bin/../../lib/gcc/pic32c/8.3.1/thumb/v7e-m+fp/hard\libgcc.a(_udivmoddi4.o)
 .ARM.extab     0x00000000        0x0 c:/program files/microchip/xc32/v4.00/bin/bin/../../lib/gcc/pic32c/8.3.1/thumb/v7e-m+fp/hard\libgcc.a(_udivmoddi4.o)
 .xc_stack_usage.hdr
                0x00000000        0xe c:/program files/microchip/xc32/v4.00/bin/bin/../../lib/gcc/pic32c/8.3.1/thumb/v7e-m+fp/hard\libgcc.a(_udivmoddi4.o)
 .data          0x00000000        0x0 c:/program files/microchip/xc32/v4.00/bin/bin/../../lib/gcc/pic32c/8.3.1/thumb/v7e-m+fp/hard\libgcc.a(_dvmd_tls.o)
 .bss           0x00000000        0x0 c:/program files/microchip/xc32/v4.00/bin/bin/../../lib/gcc/pic32c/8.3.1/thumb/v7e-m+fp/hard\libgcc.a(_dvmd_tls.o)
 .xc_stack_usage.hdr
                0x00000000        0xe c:/program files/microchip/xc32/v4.00/bin/bin/../../lib/gcc/pic32c/8.3.1/thumb/v7e-m+fp/hard\libgcc.a(_dvmd_tls.o)
 .xc_stack_usage
                0x00000000       0x36 c:/program files/microchip/xc32/v4.00/bin/bin/../../lib/gcc/pic32c/8.3.1/thumb/v7e-m+fp/hard\libgcc.a(_dvmd_tls.o)
 .text          0x00000000        0x0 c:/program files/microchip/xc32/v4.00/bin/bin/../../lib/gcc/pic32c/8.3.1/thumb/v7e-m+fp/hard/crtend.o
 .data          0x00000000        0x0 c:/program files/microchip/xc32/v4.00/bin/bin/../../lib/gcc/pic32c/8.3.1/thumb/v7e-m+fp/hard/crtend.o
 .bss           0x00000000        0x0 c:/program files/microchip/xc32/v4.00/bin/bin/../../lib/gcc/pic32c/8.3.1/thumb/v7e-m+fp/hard/crtend.o
 .eh_frame      0x00000000        0x4 c:/program files/microchip/xc32/v4.00/bin/bin/../../lib/gcc/pic32c/8.3.1/thumb/v7e-m+fp/hard/crtend.o
 .xc_stack_usage.hdr
                0x00000000        0xe c:/program files/microchip/xc32/v4.00/bin/bin/../../lib/gcc/pic32c/8.3.1/thumb/v7e-m+fp/hard/crtend.o
 .comment       0x00000000       0x54 c:/program files/microchip/xc32/v4.00/bin/bin/../../lib/gcc/pic32c/8.3.1/thumb/v7e-m+fp/hard/crtend.o
 .ARM.attributes
                0x00000000       0x32 c:/program files/microchip/xc32/v4.00/bin/bin/../../lib/gcc/pic32c/8.3.1/thumb/v7e-m+fp/hard/crtend.o
 .text          0x00000000        0x0 c:/program files/microchip/xc32/v4.00/bin/bin/../../lib/gcc/pic32c/8.3.1/thumb/v7e-m+fp/hard/crtn.o
 .data          0x00000000        0x0 c:/program files/microchip/xc32/v4.00/bin/bin/../../lib/gcc/pic32c/8.3.1/thumb/v7e-m+fp/hard/crtn.o
 .bss           0x00000000        0x0 c:/program files/microchip/xc32/v4.00/bin/bin/../../lib/gcc/pic32c/8.3.1/thumb/v7e-m+fp/hard/crtn.o
 .xc_stack_usage.hdr
                0x00000000        0xe c:/program files/microchip/xc32/v4.00/bin/bin/../../lib/gcc/pic32c/8.3.1/thumb/v7e-m+fp/hard/crtn.o

Memory Configuration

Name             Origin             Length             Attributes
rom              0x00000000         0x00080000         xrl
ram              0x20000000         0x00030000         xw !r
tcm              0x03000000         0x00000000         xw
config_00804000  0x00804000         0x00000004
config_00804008  0x00804008         0x00000004
config_00804004  0x00804004         0x00000004
*default*        0x00000000         0xffffffff

Linker script and memory map

LOAD c:/program files/microchip/xc32/v4.00/bin/bin/../../lib/gcc/pic32c/8.3.1/thumb/v7e-m+fp/hard/crti.o
LOAD c:/program files/microchip/xc32/v4.00/bin/bin/../../lib/gcc/pic32c/8.3.1/thumb/v7e-m+fp/hard/crtbegin.o
LOAD build/Artemis_PDU/production/_ext/1760076532/drv_sdspi.o
LOAD build/Artemis_PDU/production/_ext/1760076532/drv_sdspi_file_system.o
LOAD build/Artemis_PDU/production/_ext/1760076532/drv_sdspi_driver_interface.o
LOAD build/Artemis_PDU/production/_ext/1471363227/drv_spi.o
LOAD build/Artemis_PDU/production/_ext/1624425958/osal_freertos.o
LOAD build/Artemis_PDU/production/_ext/1650922938/plib_clock.o
LOAD build/Artemis_PDU/production/_ext/1023086318/plib_cmcc.o
LOAD build/Artemis_PDU/production/_ext/1648773452/plib_evsys.o
LOAD build/Artemis_PDU/production/_ext/1022749782/plib_nvic.o
LOAD build/Artemis_PDU/production/_ext/236948536/plib_nvmctrl.o
LOAD build/Artemis_PDU/production/_ext/1022696631/plib_port.o
LOAD build/Artemis_PDU/production/_ext/659748505/plib_rtc_timer.o
LOAD build/Artemis_PDU/production/_ext/835284660/plib_sercom4_i2c_slave.o
LOAD build/Artemis_PDU/production/_ext/796654533/plib_sercom2_spi_master.o
LOAD build/Artemis_PDU/production/_ext/1679430495/plib_sercom3_usart.o
LOAD build/Artemis_PDU/production/_ext/1186129630/xc32_monitor.o
LOAD build/Artemis_PDU/production/_ext/177662547/sys_cache.o
LOAD build/Artemis_PDU/production/_ext/1148418531/sys_dma.o
LOAD build/Artemis_PDU/production/_ext/401857885/ff.o
LOAD build/Artemis_PDU/production/_ext/401857885/ffunicode.o
LOAD build/Artemis_PDU/production/_ext/867183764/diskio.o
LOAD build/Artemis_PDU/production/_ext/1111598889/sys_fs.o
LOAD build/Artemis_PDU/production/_ext/1111598889/sys_fs_media_manager.o
LOAD build/Artemis_PDU/production/_ext/1111598889/sys_fs_fat_interface.o
LOAD build/Artemis_PDU/production/_ext/1813730513/sys_int.o
LOAD build/Artemis_PDU/production/_ext/1304864151/sys_time.o
LOAD build/Artemis_PDU/production/_ext/974488028/initialization.o
LOAD build/Artemis_PDU/production/_ext/974488028/interrupts.o
LOAD build/Artemis_PDU/production/_ext/974488028/exceptions.o
LOAD build/Artemis_PDU/production/_ext/974488028/startup_xc32.o
LOAD build/Artemis_PDU/production/_ext/974488028/libc_syscalls.o
LOAD build/Artemis_PDU/production/_ext/974488028/freertos_hooks.o
LOAD build/Artemis_PDU/production/_ext/974488028/tasks.o
LOAD build/Artemis_PDU/production/_ext/246609638/port.o
LOAD build/Artemis_PDU/production/_ext/1665200909/heap_1.o
LOAD build/Artemis_PDU/production/_ext/404212886/croutine.o
LOAD build/Artemis_PDU/production/_ext/404212886/list.o
LOAD build/Artemis_PDU/production/_ext/404212886/queue.o
LOAD build/Artemis_PDU/production/_ext/404212886/FreeRTOS_tasks.o
LOAD build/Artemis_PDU/production/_ext/404212886/timers.o
LOAD build/Artemis_PDU/production/_ext/404212886/event_groups.o
LOAD build/Artemis_PDU/production/_ext/404212886/stream_buffer.o
LOAD build/Artemis_PDU/production/_ext/1360937237/main.o
LOAD build/Artemis_PDU/production/_ext/1360937237/app.o
                0x00000001                __MPLAB_BUILD = 0x1
                0x00080000                __rom_end = (ORIGIN (rom) + LENGTH (rom))
                0x20030000                __ram_end = (ORIGIN (ram) + LENGTH (ram))

.config_00804000
 *(.config_00804000)

.config_00804008
 *(.config_00804008)

.config_00804004
 *(.config_00804004)

.vectors        0x00000000      0x260
                0x00000000                . = ALIGN (0x4)
                0x00000000                _sfixed = .
 *(.vectors .vectors.* .vectors_default .vectors_default.*)
 .vectors.exception_table
                0x00000000      0x260 build/Artemis_PDU/production/_ext/974488028/interrupts.o
                0x00000000                exception_table
 *(.isr_vector)
 *(.reset*)
 *(.after_vectors)

.text           0x00000260       0x20
                0x00000260                . = ALIGN (0x4)
 *(.glue_7t)
 .glue_7t       0x00000260        0x0 linker stubs
 *(.glue_7)
 .glue_7        0x00000260        0x0 linker stubs
 *(.gnu.linkonce.r.*)
 *(.ARM.extab* .gnu.linkonce.armextab.*)
                0x00000260                . = ALIGN (0x4)
 *(.init)
 .init          0x00000260        0x4 c:/program files/microchip/xc32/v4.00/bin/bin/../../lib/gcc/pic32c/8.3.1/thumb/v7e-m+fp/hard/crti.o
                0x00000260                _init
 .init          0x00000264        0x8 c:/program files/microchip/xc32/v4.00/bin/bin/../../lib/gcc/pic32c/8.3.1/thumb/v7e-m+fp/hard/crtn.o
                0x0000026c                . = ALIGN (0x4)
                0x0000026c                __preinit_array_start = .
 *(.preinit_array)
                0x0000026c                __preinit_array_end = .
                0x0000026c                . = ALIGN (0x4)
                0x0000026c                __init_array_start = .
 *(SORT_BY_NAME(.init_array.*))
 *(.init_array)
 .init_array    0x0000026c        0x4 c:/program files/microchip/xc32/v4.00/bin/bin/../../lib/gcc/pic32c/8.3.1/thumb/v7e-m+fp/hard/crtbegin.o
                0x00000270                __init_array_end = .
                0x00000270                . = ALIGN (0x4)
 *crtbegin.o(.ctors)
 *(EXCLUDE_FILE(*crtend.o) .ctors)
 *(SORT_BY_NAME(.ctors.*))
 *crtend.o(.ctors)
                0x00000270                . = ALIGN (0x4)
 *(.fini)
 .fini          0x00000270        0x4 c:/program files/microchip/xc32/v4.00/bin/bin/../../lib/gcc/pic32c/8.3.1/thumb/v7e-m+fp/hard/crti.o
                0x00000270                _fini
 .fini          0x00000274        0x8 c:/program files/microchip/xc32/v4.00/bin/bin/../../lib/gcc/pic32c/8.3.1/thumb/v7e-m+fp/hard/crtn.o
                0x0000027c                . = ALIGN (0x4)
                0x0000027c                __fini_array_start = .
 *(.fini_array)
 .fini_array    0x0000027c        0x4 c:/program files/microchip/xc32/v4.00/bin/bin/../../lib/gcc/pic32c/8.3.1/thumb/v7e-m+fp/hard/crtbegin.o
 *(SORT_BY_NAME(.fini_array.*))
                0x00000280                __fini_array_end = .
 *crtbegin.o(.dtors)
 *(EXCLUDE_FILE(*crtend.o) .dtors)
 *(SORT_BY_NAME(.dtors.*))
 *crtend.o(.dtors)
                0x00000280                . = ALIGN (0x4)
                0x00000280                _efixed = .
                [!provide]                PROVIDE (__exidx_start = .)

.ARM.exidx      0x00000280        0x8
 *(.ARM.exidx* .gnu.linkonce.armexidx.*)
 .ARM.exidx     0x00000280        0x8 c:/program files/microchip/xc32/v4.00/bin/bin/../../lib/gcc/pic32c/8.3.1/thumb/v7e-m+fp/hard\libgcc.a(_udivmoddi4.o)
                [!provide]                PROVIDE (__exidx_end = .)
                0x00000288                . = ALIGN (0x4)
                0x00000288                _etext = .

.bss            0x20000000        0x0
                0x20000000                . = ALIGN (0x4)
                0x20000000                __bss_start__ = .
                0x20000000                _sbss = .
                0x20000000                _szero = .
 *(COMMON)
                0x20000000                . = ALIGN (0x4)
                0x20000000                __bss_end__ = .
                0x20000000                _ebss = .
                0x20000000                _ezero = .
                0x20000000                . = ALIGN (0x4)
                0x20000000                _end = .
                0x2002ffff                _ram_end_ = ((ORIGIN (ram) + LENGTH (ram)) - 0x1)
                0x00000200                _min_heap_size = 0x200
START GROUP
LOAD c:/program files/microchip/xc32/v4.00/bin/bin/../../lib/gcc/pic32c/8.3.1/../../../../pic32c/lib/thumb/v7e-m+fp/hard\libpic32c.a
LOAD c:/program files/microchip/xc32/v4.00/bin/bin/../../lib/gcc/pic32c/8.3.1/../../../../pic32c/lib/thumb/v7e-m+fp/hard\libm-emfloat.a
LOAD c:/program files/microchip/xc32/v4.00/bin/bin/../../lib/gcc/pic32c/8.3.1/../../../../pic32c/lib/thumb/v7e-m+fp/hard\libc-musl.a
LOAD c:/program files/microchip/xc32/v4.00/bin/bin/../../lib/gcc/pic32c/8.3.1/../../../../pic32c/lib/thumb/v7e-m+fp/hard\libm-emfloat.a
LOAD c:/program files/microchip/xc32/v4.00/bin/bin/../../lib/gcc/pic32c/8.3.1/thumb/v7e-m+fp/hard\libgcc.a
END GROUP
LOAD c:/program files/microchip/xc32/v4.00/bin/bin/../../lib/gcc/pic32c/8.3.1/thumb/v7e-m+fp/hard/crtend.o
LOAD c:/program files/microchip/xc32/v4.00/bin/bin/../../lib/gcc/pic32c/8.3.1/thumb/v7e-m+fp/hard/crtn.o
OUTPUT(dist/Artemis_PDU/production/Artemis_PDU.X.production.elf elf32-littlearm)
LOAD stack
LOAD data_init

.ARM.attributes
                0x00000000       0x34
 .ARM.attributes
                0x00000000       0x1e c:/program files/microchip/xc32/v4.00/bin/bin/../../lib/gcc/pic32c/8.3.1/thumb/v7e-m+fp/hard/crti.o
 .ARM.attributes
                0x0000001e       0x34 c:/program files/microchip/xc32/v4.00/bin/bin/../../lib/gcc/pic32c/8.3.1/thumb/v7e-m+fp/hard/crtbegin.o
 .ARM.attributes
                0x00000052       0x34 build/Artemis_PDU/production/_ext/1760076532/drv_sdspi.o
 .ARM.attributes
                0x00000086       0x34 build/Artemis_PDU/production/_ext/1760076532/drv_sdspi_file_system.o
 .ARM.attributes
                0x000000ba       0x34 build/Artemis_PDU/production/_ext/1760076532/drv_sdspi_driver_interface.o
 .ARM.attributes
                0x000000ee       0x34 build/Artemis_PDU/production/_ext/1471363227/drv_spi.o
 .ARM.attributes
                0x00000122       0x34 build/Artemis_PDU/production/_ext/1624425958/osal_freertos.o
 .ARM.attributes
                0x00000156       0x34 build/Artemis_PDU/production/_ext/1650922938/plib_clock.o
 .ARM.attributes
                0x0000018a       0x34 build/Artemis_PDU/production/_ext/1648773452/plib_evsys.o
 .ARM.attributes
                0x000001be       0x34 build/Artemis_PDU/production/_ext/1022749782/plib_nvic.o
 .ARM.attributes
                0x000001f2       0x34 build/Artemis_PDU/production/_ext/236948536/plib_nvmctrl.o
 .ARM.attributes
                0x00000226       0x34 build/Artemis_PDU/production/_ext/1022696631/plib_port.o
 .ARM.attributes
                0x0000025a       0x34 build/Artemis_PDU/production/_ext/659748505/plib_rtc_timer.o
 .ARM.attributes
                0x0000028e       0x34 build/Artemis_PDU/production/_ext/835284660/plib_sercom4_i2c_slave.o
 .ARM.attributes
                0x000002c2       0x34 build/Artemis_PDU/production/_ext/796654533/plib_sercom2_spi_master.o
 .ARM.attributes
                0x000002f6       0x34 build/Artemis_PDU/production/_ext/1679430495/plib_sercom3_usart.o
 .ARM.attributes
                0x0000032a       0x34 build/Artemis_PDU/production/_ext/401857885/ff.o
 .ARM.attributes
                0x0000035e       0x34 build/Artemis_PDU/production/_ext/401857885/ffunicode.o
 .ARM.attributes
                0x00000392       0x34 build/Artemis_PDU/production/_ext/867183764/diskio.o
 .ARM.attributes
                0x000003c6       0x34 build/Artemis_PDU/production/_ext/1111598889/sys_fs.o
 .ARM.attributes
                0x000003fa       0x34 build/Artemis_PDU/production/_ext/1111598889/sys_fs_media_manager.o
 .ARM.attributes
                0x0000042e       0x34 build/Artemis_PDU/production/_ext/1111598889/sys_fs_fat_interface.o
 .ARM.attributes
                0x00000462       0x34 build/Artemis_PDU/production/_ext/1813730513/sys_int.o
 .ARM.attributes
                0x00000496       0x34 build/Artemis_PDU/production/_ext/1304864151/sys_time.o
 .ARM.attributes
                0x000004ca       0x34 build/Artemis_PDU/production/_ext/974488028/initialization.o
 .ARM.attributes
                0x000004fe       0x34 build/Artemis_PDU/production/_ext/974488028/interrupts.o
 .ARM.attributes
                0x00000532       0x34 build/Artemis_PDU/production/_ext/974488028/exceptions.o
 .ARM.attributes
                0x00000566       0x34 build/Artemis_PDU/production/_ext/974488028/startup_xc32.o
 .ARM.attributes
                0x0000059a       0x34 build/Artemis_PDU/production/_ext/974488028/freertos_hooks.o
 .ARM.attributes
                0x000005ce       0x34 build/Artemis_PDU/production/_ext/974488028/tasks.o
 .ARM.attributes
                0x00000602       0x34 build/Artemis_PDU/production/_ext/246609638/port.o
 .ARM.attributes
                0x00000636       0x34 build/Artemis_PDU/production/_ext/1665200909/heap_1.o
 .ARM.attributes
                0x0000066a       0x34 build/Artemis_PDU/production/_ext/404212886/list.o
 .ARM.attributes
                0x0000069e       0x34 build/Artemis_PDU/production/_ext/404212886/queue.o
 .ARM.attributes
                0x000006d2       0x34 build/Artemis_PDU/production/_ext/404212886/FreeRTOS_tasks.o
 .ARM.attributes
                0x00000706       0x34 build/Artemis_PDU/production/_ext/1360937237/main.o
 .ARM.attributes
                0x0000073a       0x34 build/Artemis_PDU/production/_ext/1360937237/app.o
 .ARM.attributes
                0x0000076e       0x34 c:/program files/microchip/xc32/v4.00/bin/bin/../../lib/gcc/pic32c/8.3.1/../../../../pic32c/lib/thumb/v7e-m+fp/hard\libpic32c.a(data_init.o)
 .ARM.attributes
                0x000007a2       0x36 c:/program files/microchip/xc32/v4.00/bin/bin/../../lib/gcc/pic32c/8.3.1/../../../../pic32c/lib/thumb/v7e-m+fp/hard\libc-musl.a(__libc_start_main.o)
 .ARM.attributes
                0x000007d8       0x34 c:/program files/microchip/xc32/v4.00/bin/bin/../../lib/gcc/pic32c/8.3.1/../../../../pic32c/lib/thumb/v7e-m+fp/hard\libc-musl.a(libc.o)
 .ARM.attributes
                0x0000080c       0x36 c:/program files/microchip/xc32/v4.00/bin/bin/../../lib/gcc/pic32c/8.3.1/../../../../pic32c/lib/thumb/v7e-m+fp/hard\libc-musl.a(memcmp.o)
 .ARM.attributes
                0x00000842       0x36 c:/program files/microchip/xc32/v4.00/bin/bin/../../lib/gcc/pic32c/8.3.1/../../../../pic32c/lib/thumb/v7e-m+fp/hard\libc-musl.a(memcpy.o)
 .ARM.attributes
                0x00000878       0x36 c:/program files/microchip/xc32/v4.00/bin/bin/../../lib/gcc/pic32c/8.3.1/../../../../pic32c/lib/thumb/v7e-m+fp/hard\libc-musl.a(memset.o)
 .ARM.attributes
                0x000008ae       0x36 c:/program files/microchip/xc32/v4.00/bin/bin/../../lib/gcc/pic32c/8.3.1/../../../../pic32c/lib/thumb/v7e-m+fp/hard\libc-musl.a(strlen.o)
 .ARM.attributes
                0x000008e4       0x36 c:/program files/microchip/xc32/v4.00/bin/bin/../../lib/gcc/pic32c/8.3.1/../../../../pic32c/lib/thumb/v7e-m+fp/hard\libc-musl.a(strstr.o)
 .ARM.attributes
                0x0000091a       0x34 c:/program files/microchip/xc32/v4.00/bin/bin/../../lib/gcc/pic32c/8.3.1/../../../../pic32c/lib/thumb/v7e-m+fp/hard\libc-musl.a(__environ.o)
 .ARM.attributes
                0x0000094e       0x1e c:/program files/microchip/xc32/v4.00/bin/bin/../../lib/gcc/pic32c/8.3.1/thumb/v7e-m+fp/hard\libgcc.a(_aeabi_uldivmod.o)
 .ARM.attributes
                0x0000096c       0x34 c:/program files/microchip/xc32/v4.00/bin/bin/../../lib/gcc/pic32c/8.3.1/thumb/v7e-m+fp/hard\libgcc.a(_udivmoddi4.o)
 .ARM.attributes
                0x000009a0       0x1e c:/program files/microchip/xc32/v4.00/bin/bin/../../lib/gcc/pic32c/8.3.1/thumb/v7e-m+fp/hard\libgcc.a(_dvmd_tls.o)
 .ARM.attributes
                0x000009be       0x1e c:/program files/microchip/xc32/v4.00/bin/bin/../../lib/gcc/pic32c/8.3.1/thumb/v7e-m+fp/hard/crtn.o

.comment        0x00000000       0x53
 .comment       0x00000000       0x53 c:/program files/microchip/xc32/v4.00/bin/bin/../../lib/gcc/pic32c/8.3.1/thumb/v7e-m+fp/hard/crtbegin.o
                                 0x54 (size before relaxing)
 .comment       0x00000053       0x54 build/Artemis_PDU/production/_ext/1760076532/drv_sdspi.o
 .comment       0x00000053       0x54 build/Artemis_PDU/production/_ext/1760076532/drv_sdspi_file_system.o
 .comment       0x00000053       0x54 build/Artemis_PDU/production/_ext/1760076532/drv_sdspi_driver_interface.o
 .comment       0x00000053       0x54 build/Artemis_PDU/production/_ext/1471363227/drv_spi.o
 .comment       0x00000053       0x54 build/Artemis_PDU/production/_ext/1624425958/osal_freertos.o
 .comment       0x00000053       0x54 build/Artemis_PDU/production/_ext/1650922938/plib_clock.o
 .comment       0x00000053       0x54 build/Artemis_PDU/production/_ext/1648773452/plib_evsys.o
 .comment       0x00000053       0x54 build/Artemis_PDU/production/_ext/1022749782/plib_nvic.o
 .comment       0x00000053       0x54 build/Artemis_PDU/production/_ext/236948536/plib_nvmctrl.o
 .comment       0x00000053       0x54 build/Artemis_PDU/production/_ext/1022696631/plib_port.o
 .comment       0x00000053       0x54 build/Artemis_PDU/production/_ext/659748505/plib_rtc_timer.o
 .comment       0x00000053       0x54 build/Artemis_PDU/production/_ext/835284660/plib_sercom4_i2c_slave.o
 .comment       0x00000053       0x54 build/Artemis_PDU/production/_ext/796654533/plib_sercom2_spi_master.o
 .comment       0x00000053       0x54 build/Artemis_PDU/production/_ext/1679430495/plib_sercom3_usart.o
 .comment       0x00000053       0x54 build/Artemis_PDU/production/_ext/401857885/ff.o
 .comment       0x00000053       0x54 build/Artemis_PDU/production/_ext/401857885/ffunicode.o
 .comment       0x00000053       0x54 build/Artemis_PDU/production/_ext/867183764/diskio.o
 .comment       0x00000053       0x54 build/Artemis_PDU/production/_ext/1111598889/sys_fs.o
 .comment       0x00000053       0x54 build/Artemis_PDU/production/_ext/1111598889/sys_fs_media_manager.o
 .comment       0x00000053       0x54 build/Artemis_PDU/production/_ext/1111598889/sys_fs_fat_interface.o
 .comment       0x00000053       0x54 build/Artemis_PDU/production/_ext/1813730513/sys_int.o
 .comment       0x00000053       0x54 build/Artemis_PDU/production/_ext/1304864151/sys_time.o
 .comment       0x00000053       0x54 build/Artemis_PDU/production/_ext/974488028/initialization.o
 .comment       0x00000053       0x54 build/Artemis_PDU/production/_ext/974488028/interrupts.o
 .comment       0x00000053       0x54 build/Artemis_PDU/production/_ext/974488028/exceptions.o
 .comment       0x00000053       0x54 build/Artemis_PDU/production/_ext/974488028/startup_xc32.o
 .comment       0x00000053       0x54 build/Artemis_PDU/production/_ext/974488028/freertos_hooks.o
 .comment       0x00000053       0x54 build/Artemis_PDU/production/_ext/974488028/tasks.o
 .comment       0x00000053       0x54 build/Artemis_PDU/production/_ext/246609638/port.o
 .comment       0x00000053       0x54 build/Artemis_PDU/production/_ext/1665200909/heap_1.o
 .comment       0x00000053       0x54 build/Artemis_PDU/production/_ext/404212886/list.o
 .comment       0x00000053       0x54 build/Artemis_PDU/production/_ext/404212886/queue.o
 .comment       0x00000053       0x54 build/Artemis_PDU/production/_ext/404212886/FreeRTOS_tasks.o
 .comment       0x00000053       0x54 build/Artemis_PDU/production/_ext/1360937237/main.o
 .comment       0x00000053       0x54 build/Artemis_PDU/production/_ext/1360937237/app.o
 .comment       0x00000053       0x54 c:/program files/microchip/xc32/v4.00/bin/bin/../../lib/gcc/pic32c/8.3.1/../../../../pic32c/lib/thumb/v7e-m+fp/hard\libpic32c.a(data_init.o)
 .comment       0x00000053       0x54 c:/program files/microchip/xc32/v4.00/bin/bin/../../lib/gcc/pic32c/8.3.1/../../../../pic32c/lib/thumb/v7e-m+fp/hard\libc-musl.a(__libc_start_main.o)
 .comment       0x00000053       0x54 c:/program files/microchip/xc32/v4.00/bin/bin/../../lib/gcc/pic32c/8.3.1/../../../../pic32c/lib/thumb/v7e-m+fp/hard\libc-musl.a(libc.o)
 .comment       0x00000053       0x54 c:/program files/microchip/xc32/v4.00/bin/bin/../../lib/gcc/pic32c/8.3.1/../../../../pic32c/lib/thumb/v7e-m+fp/hard\libc-musl.a(memcmp.o)
 .comment       0x00000053       0x54 c:/program files/microchip/xc32/v4.00/bin/bin/../../lib/gcc/pic32c/8.3.1/../../../../pic32c/lib/thumb/v7e-m+fp/hard\libc-musl.a(memcpy.o)
 .comment       0x00000053       0x54 c:/program files/microchip/xc32/v4.00/bin/bin/../../lib/gcc/pic32c/8.3.1/../../../../pic32c/lib/thumb/v7e-m+fp/hard\libc-musl.a(memset.o)
 .comment       0x00000053       0x54 c:/program files/microchip/xc32/v4.00/bin/bin/../../lib/gcc/pic32c/8.3.1/../../../../pic32c/lib/thumb/v7e-m+fp/hard\libc-musl.a(strlen.o)
 .comment       0x00000053       0x54 c:/program files/microchip/xc32/v4.00/bin/bin/../../lib/gcc/pic32c/8.3.1/../../../../pic32c/lib/thumb/v7e-m+fp/hard\libc-musl.a(strstr.o)
 .comment       0x00000053       0x54 c:/program files/microchip/xc32/v4.00/bin/bin/../../lib/gcc/pic32c/8.3.1/../../../../pic32c/lib/thumb/v7e-m+fp/hard\libc-musl.a(__environ.o)
 .comment       0x00000053       0x54 c:/program files/microchip/xc32/v4.00/bin/bin/../../lib/gcc/pic32c/8.3.1/thumb/v7e-m+fp/hard\libgcc.a(_udivmoddi4.o)

.debug_info     0x00000000    0x3c1e0
 .debug_info    0x00000000     0x4dfa build/Artemis_PDU/production/_ext/1760076532/drv_sdspi.o
 .debug_info    0x00004dfa      0xc99 build/Artemis_PDU/production/_ext/1760076532/drv_sdspi_file_system.o
 .debug_info    0x00005a93     0x2424 build/Artemis_PDU/production/_ext/1760076532/drv_sdspi_driver_interface.o
 .debug_info    0x00007eb7     0x2949 build/Artemis_PDU/production/_ext/1471363227/drv_spi.o
 .debug_info    0x0000a800      0xbf4 build/Artemis_PDU/production/_ext/1624425958/osal_freertos.o
 .debug_info    0x0000b3f4      0xbb4 build/Artemis_PDU/production/_ext/1650922938/plib_clock.o
 .debug_info    0x0000bfa8      0x371 build/Artemis_PDU/production/_ext/1648773452/plib_evsys.o
 .debug_info    0x0000c319     0x1724 build/Artemis_PDU/production/_ext/1022749782/plib_nvic.o
 .debug_info    0x0000da3d      0xd77 build/Artemis_PDU/production/_ext/236948536/plib_nvmctrl.o
 .debug_info    0x0000e7b4     0x1000 build/Artemis_PDU/production/_ext/1022696631/plib_port.o
 .debug_info    0x0000f7b4     0x103a build/Artemis_PDU/production/_ext/659748505/plib_rtc_timer.o
 .debug_info    0x000107ee     0x1467 build/Artemis_PDU/production/_ext/835284660/plib_sercom4_i2c_slave.o
 .debug_info    0x00011c55     0x14fa build/Artemis_PDU/production/_ext/796654533/plib_sercom2_spi_master.o
 .debug_info    0x0001314f     0x1571 build/Artemis_PDU/production/_ext/1679430495/plib_sercom3_usart.o
 .debug_info    0x000146c0     0x6a45 build/Artemis_PDU/production/_ext/401857885/ff.o
 .debug_info    0x0001b105      0x60e build/Artemis_PDU/production/_ext/401857885/ffunicode.o
 .debug_info    0x0001b713      0xfdd build/Artemis_PDU/production/_ext/867183764/diskio.o
 .debug_info    0x0001c6f0     0x427d build/Artemis_PDU/production/_ext/1111598889/sys_fs.o
 .debug_info    0x0002096d     0x250c build/Artemis_PDU/production/_ext/1111598889/sys_fs_media_manager.o
 .debug_info    0x00022e79     0x24db build/Artemis_PDU/production/_ext/1111598889/sys_fs_fat_interface.o
 .debug_info    0x00025354     0x11da build/Artemis_PDU/production/_ext/1813730513/sys_int.o
 .debug_info    0x0002652e     0x2d77 build/Artemis_PDU/production/_ext/1304864151/sys_time.o
 .debug_info    0x000292a5     0x335e build/Artemis_PDU/production/_ext/974488028/initialization.o
 .debug_info    0x0002c603     0x1ad8 build/Artemis_PDU/production/_ext/974488028/interrupts.o
 .debug_info    0x0002e0db      0x62c build/Artemis_PDU/production/_ext/974488028/exceptions.o
 .debug_info    0x0002e707      0x958 build/Artemis_PDU/production/_ext/974488028/startup_xc32.o
 .debug_info    0x0002f05f      0x556 build/Artemis_PDU/production/_ext/974488028/freertos_hooks.o
 .debug_info    0x0002f5b5      0x9bd build/Artemis_PDU/production/_ext/974488028/tasks.o
 .debug_info    0x0002ff72      0x7ad build/Artemis_PDU/production/_ext/246609638/port.o
 .debug_info    0x0003071f      0x52d build/Artemis_PDU/production/_ext/1665200909/heap_1.o
 .debug_info    0x00030c4c      0x65a build/Artemis_PDU/production/_ext/404212886/list.o
 .debug_info    0x000312a6     0x216c build/Artemis_PDU/production/_ext/404212886/queue.o
 .debug_info    0x00033412     0x2e93 build/Artemis_PDU/production/_ext/404212886/FreeRTOS_tasks.o
 .debug_info    0x000362a5      0x57f build/Artemis_PDU/production/_ext/1360937237/main.o
 .debug_info    0x00036824     0x15cd build/Artemis_PDU/production/_ext/1360937237/app.o
 .debug_info    0x00037df1      0x2db c:/program files/microchip/xc32/v4.00/bin/bin/../../lib/gcc/pic32c/8.3.1/../../../../pic32c/lib/thumb/v7e-m+fp/hard\libpic32c.a(data_init.o)
 .debug_info    0x000380cc      0x6b3 c:/program files/microchip/xc32/v4.00/bin/bin/../../lib/gcc/pic32c/8.3.1/../../../../pic32c/lib/thumb/v7e-m+fp/hard\libc-musl.a(__libc_start_main.o)
 .debug_info    0x0003877f      0x5df c:/program files/microchip/xc32/v4.00/bin/bin/../../lib/gcc/pic32c/8.3.1/../../../../pic32c/lib/thumb/v7e-m+fp/hard\libc-musl.a(libc.o)
 .debug_info    0x00038d5e      0x309 c:/program files/microchip/xc32/v4.00/bin/bin/../../lib/gcc/pic32c/8.3.1/../../../../pic32c/lib/thumb/v7e-m+fp/hard\libc-musl.a(memcmp.o)
 .debug_info    0x00039067      0x31e c:/program files/microchip/xc32/v4.00/bin/bin/../../lib/gcc/pic32c/8.3.1/../../../../pic32c/lib/thumb/v7e-m+fp/hard\libc-musl.a(memcpy.o)
 .debug_info    0x00039385      0x2dc c:/program files/microchip/xc32/v4.00/bin/bin/../../lib/gcc/pic32c/8.3.1/../../../../pic32c/lib/thumb/v7e-m+fp/hard\libc-musl.a(memset.o)
 .debug_info    0x00039661      0x2cd c:/program files/microchip/xc32/v4.00/bin/bin/../../lib/gcc/pic32c/8.3.1/../../../../pic32c/lib/thumb/v7e-m+fp/hard\libc-musl.a(strlen.o)
 .debug_info    0x0003992e      0x2e6 c:/program files/microchip/xc32/v4.00/bin/bin/../../lib/gcc/pic32c/8.3.1/../../../../pic32c/lib/thumb/v7e-m+fp/hard\libc-musl.a(strstr.o)
 .debug_info    0x00039c14      0x596 c:/program files/microchip/xc32/v4.00/bin/bin/../../lib/gcc/pic32c/8.3.1/../../../../pic32c/lib/thumb/v7e-m+fp/hard\libc-musl.a(__environ.o)
 .debug_info    0x0003a1aa       0x26 c:/program files/microchip/xc32/v4.00/bin/bin/../../lib/gcc/pic32c/8.3.1/thumb/v7e-m+fp/hard\libgcc.a(_aeabi_uldivmod.o)
 .debug_info    0x0003a1d0     0x1fea c:/program files/microchip/xc32/v4.00/bin/bin/../../lib/gcc/pic32c/8.3.1/thumb/v7e-m+fp/hard\libgcc.a(_udivmoddi4.o)
 .debug_info    0x0003c1ba       0x26 c:/program files/microchip/xc32/v4.00/bin/bin/../../lib/gcc/pic32c/8.3.1/thumb/v7e-m+fp/hard\libgcc.a(_dvmd_tls.o)

.debug_abbrev   0x00000000     0x609a
 .debug_abbrev  0x00000000      0x5a2 build/Artemis_PDU/production/_ext/1760076532/drv_sdspi.o
 .debug_abbrev  0x000005a2      0x176 build/Artemis_PDU/production/_ext/1760076532/drv_sdspi_file_system.o
 .debug_abbrev  0x00000718      0x279 build/Artemis_PDU/production/_ext/1760076532/drv_sdspi_driver_interface.o
 .debug_abbrev  0x00000991      0x46f build/Artemis_PDU/production/_ext/1471363227/drv_spi.o
 .debug_abbrev  0x00000e00      0x204 build/Artemis_PDU/production/_ext/1624425958/osal_freertos.o
 .debug_abbrev  0x00001004      0x135 build/Artemis_PDU/production/_ext/1650922938/plib_clock.o
 .debug_abbrev  0x00001139       0x64 build/Artemis_PDU/production/_ext/1648773452/plib_evsys.o
 .debug_abbrev  0x0000119d      0x206 build/Artemis_PDU/production/_ext/1022749782/plib_nvic.o
 .debug_abbrev  0x000013a3      0x25f build/Artemis_PDU/production/_ext/236948536/plib_nvmctrl.o
 .debug_abbrev  0x00001602      0x1e9 build/Artemis_PDU/production/_ext/1022696631/plib_port.o
 .debug_abbrev  0x000017eb      0x1fb build/Artemis_PDU/production/_ext/659748505/plib_rtc_timer.o
 .debug_abbrev  0x000019e6      0x22e build/Artemis_PDU/production/_ext/835284660/plib_sercom4_i2c_slave.o
 .debug_abbrev  0x00001c14      0x2ad build/Artemis_PDU/production/_ext/796654533/plib_sercom2_spi_master.o
 .debug_abbrev  0x00001ec1      0x2b4 build/Artemis_PDU/production/_ext/1679430495/plib_sercom3_usart.o
 .debug_abbrev  0x00002175      0x3f3 build/Artemis_PDU/production/_ext/401857885/ff.o
 .debug_abbrev  0x00002568      0x155 build/Artemis_PDU/production/_ext/401857885/ffunicode.o
 .debug_abbrev  0x000026bd      0x315 build/Artemis_PDU/production/_ext/867183764/diskio.o
 .debug_abbrev  0x000029d2      0x4e0 build/Artemis_PDU/production/_ext/1111598889/sys_fs.o
 .debug_abbrev  0x00002eb2      0x500 build/Artemis_PDU/production/_ext/1111598889/sys_fs_media_manager.o
 .debug_abbrev  0x000033b2      0x337 build/Artemis_PDU/production/_ext/1111598889/sys_fs_fat_interface.o
 .debug_abbrev  0x000036e9      0x253 build/Artemis_PDU/production/_ext/1813730513/sys_int.o
 .debug_abbrev  0x0000393c      0x57c build/Artemis_PDU/production/_ext/1304864151/sys_time.o
 .debug_abbrev  0x00003eb8      0x2ad build/Artemis_PDU/production/_ext/974488028/initialization.o
 .debug_abbrev  0x00004165      0x11a build/Artemis_PDU/production/_ext/974488028/interrupts.o
 .debug_abbrev  0x0000427f       0xec build/Artemis_PDU/production/_ext/974488028/exceptions.o
 .debug_abbrev  0x0000436b      0x209 build/Artemis_PDU/production/_ext/974488028/startup_xc32.o
 .debug_abbrev  0x00004574      0x14e build/Artemis_PDU/production/_ext/974488028/freertos_hooks.o
 .debug_abbrev  0x000046c2      0x189 build/Artemis_PDU/production/_ext/974488028/tasks.o
 .debug_abbrev  0x0000484b      0x226 build/Artemis_PDU/production/_ext/246609638/port.o
 .debug_abbrev  0x00004a71      0x16c build/Artemis_PDU/production/_ext/1665200909/heap_1.o
 .debug_abbrev  0x00004bdd      0x15e build/Artemis_PDU/production/_ext/404212886/list.o
 .debug_abbrev  0x00004d3b      0x399 build/Artemis_PDU/production/_ext/404212886/queue.o
 .debug_abbrev  0x000050d4      0x466 build/Artemis_PDU/production/_ext/404212886/FreeRTOS_tasks.o
 .debug_abbrev  0x0000553a      0x125 build/Artemis_PDU/production/_ext/1360937237/main.o
 .debug_abbrev  0x0000565f      0x2b5 build/Artemis_PDU/production/_ext/1360937237/app.o
 .debug_abbrev  0x00005914       0x2e c:/program files/microchip/xc32/v4.00/bin/bin/../../lib/gcc/pic32c/8.3.1/../../../../pic32c/lib/thumb/v7e-m+fp/hard\libpic32c.a(data_init.o)
 .debug_abbrev  0x00005942      0x126 c:/program files/microchip/xc32/v4.00/bin/bin/../../lib/gcc/pic32c/8.3.1/../../../../pic32c/lib/thumb/v7e-m+fp/hard\libc-musl.a(__libc_start_main.o)
 .debug_abbrev  0x00005a68       0xc7 c:/program files/microchip/xc32/v4.00/bin/bin/../../lib/gcc/pic32c/8.3.1/../../../../pic32c/lib/thumb/v7e-m+fp/hard\libc-musl.a(libc.o)
 .debug_abbrev  0x00005b2f       0x8b c:/program files/microchip/xc32/v4.00/bin/bin/../../lib/gcc/pic32c/8.3.1/../../../../pic32c/lib/thumb/v7e-m+fp/hard\libc-musl.a(memcmp.o)
 .debug_abbrev  0x00005bba       0x9c c:/program files/microchip/xc32/v4.00/bin/bin/../../lib/gcc/pic32c/8.3.1/../../../../pic32c/lib/thumb/v7e-m+fp/hard\libc-musl.a(memcpy.o)
 .debug_abbrev  0x00005c56       0x97 c:/program files/microchip/xc32/v4.00/bin/bin/../../lib/gcc/pic32c/8.3.1/../../../../pic32c/lib/thumb/v7e-m+fp/hard\libc-musl.a(memset.o)
 .debug_abbrev  0x00005ced       0x86 c:/program files/microchip/xc32/v4.00/bin/bin/../../lib/gcc/pic32c/8.3.1/../../../../pic32c/lib/thumb/v7e-m+fp/hard\libc-musl.a(strlen.o)
 .debug_abbrev  0x00005d73       0xa6 c:/program files/microchip/xc32/v4.00/bin/bin/../../lib/gcc/pic32c/8.3.1/../../../../pic32c/lib/thumb/v7e-m+fp/hard\libc-musl.a(strstr.o)
 .debug_abbrev  0x00005e19       0xc7 c:/program files/microchip/xc32/v4.00/bin/bin/../../lib/gcc/pic32c/8.3.1/../../../../pic32c/lib/thumb/v7e-m+fp/hard\libc-musl.a(__environ.o)
 .debug_abbrev  0x00005ee0       0x14 c:/program files/microchip/xc32/v4.00/bin/bin/../../lib/gcc/pic32c/8.3.1/thumb/v7e-m+fp/hard\libgcc.a(_aeabi_uldivmod.o)
 .debug_abbrev  0x00005ef4      0x192 c:/program files/microchip/xc32/v4.00/bin/bin/../../lib/gcc/pic32c/8.3.1/thumb/v7e-m+fp/hard\libgcc.a(_udivmoddi4.o)
 .debug_abbrev  0x00006086       0x14 c:/program files/microchip/xc32/v4.00/bin/bin/../../lib/gcc/pic32c/8.3.1/thumb/v7e-m+fp/hard\libgcc.a(_dvmd_tls.o)

.debug_loc      0x00000000    0x1ff26
 .debug_loc     0x00000000     0x227e build/Artemis_PDU/production/_ext/1760076532/drv_sdspi.o
 .debug_loc     0x0000227e       0x45 build/Artemis_PDU/production/_ext/1760076532/drv_sdspi_file_system.o
 .debug_loc     0x000022c3      0x852 build/Artemis_PDU/production/_ext/1760076532/drv_sdspi_driver_interface.o
 .debug_loc     0x00002b15     0x1042 build/Artemis_PDU/production/_ext/1471363227/drv_spi.o
 .debug_loc     0x00003b57      0x727 build/Artemis_PDU/production/_ext/1624425958/osal_freertos.o
 .debug_loc     0x0000427e      0x302 build/Artemis_PDU/production/_ext/1022749782/plib_nvic.o
 .debug_loc     0x00004580      0x5a2 build/Artemis_PDU/production/_ext/236948536/plib_nvmctrl.o
 .debug_loc     0x00004b22      0x1e8 build/Artemis_PDU/production/_ext/1022696631/plib_port.o
 .debug_loc     0x00004d0a       0xb4 build/Artemis_PDU/production/_ext/659748505/plib_rtc_timer.o
 .debug_loc     0x00004dbe       0xe8 build/Artemis_PDU/production/_ext/835284660/plib_sercom4_i2c_slave.o
 .debug_loc     0x00004ea6      0x640 build/Artemis_PDU/production/_ext/796654533/plib_sercom2_spi_master.o
 .debug_loc     0x000054e6      0x7d8 build/Artemis_PDU/production/_ext/1679430495/plib_sercom3_usart.o
 .debug_loc     0x00005cbe     0xa363 build/Artemis_PDU/production/_ext/401857885/ff.o
 .debug_loc     0x00010021      0x575 build/Artemis_PDU/production/_ext/401857885/ffunicode.o
 .debug_loc     0x00010596      0x58b build/Artemis_PDU/production/_ext/867183764/diskio.o
 .debug_loc     0x00010b21     0x4c3c build/Artemis_PDU/production/_ext/1111598889/sys_fs.o
 .debug_loc     0x0001575d     0x1696 build/Artemis_PDU/production/_ext/1111598889/sys_fs_media_manager.o
 .debug_loc     0x00016df3     0x1c60 build/Artemis_PDU/production/_ext/1111598889/sys_fs_fat_interface.o
 .debug_loc     0x00018a53      0x182 build/Artemis_PDU/production/_ext/1813730513/sys_int.o
 .debug_loc     0x00018bd5     0x20e5 build/Artemis_PDU/production/_ext/1304864151/sys_time.o
 .debug_loc     0x0001acba       0x45 build/Artemis_PDU/production/_ext/974488028/initialization.o
 .debug_loc     0x0001acff       0x60 build/Artemis_PDU/production/_ext/974488028/startup_xc32.o
 .debug_loc     0x0001ad5f       0x82 build/Artemis_PDU/production/_ext/974488028/freertos_hooks.o
 .debug_loc     0x0001ade1      0x107 build/Artemis_PDU/production/_ext/974488028/tasks.o
 .debug_loc     0x0001aee8      0x13a build/Artemis_PDU/production/_ext/246609638/port.o
 .debug_loc     0x0001b022      0x116 build/Artemis_PDU/production/_ext/1665200909/heap_1.o
 .debug_loc     0x0001b138       0xb2 build/Artemis_PDU/production/_ext/404212886/list.o
 .debug_loc     0x0001b1ea     0x16e4 build/Artemis_PDU/production/_ext/404212886/queue.o
 .debug_loc     0x0001c8ce     0x212d build/Artemis_PDU/production/_ext/404212886/FreeRTOS_tasks.o
 .debug_loc     0x0001e9fb       0x20 build/Artemis_PDU/production/_ext/1360937237/main.o
 .debug_loc     0x0001ea1b      0x17f build/Artemis_PDU/production/_ext/1360937237/app.o
 .debug_loc     0x0001eb9a       0x14 c:/program files/microchip/xc32/v4.00/bin/bin/../../lib/gcc/pic32c/8.3.1/../../../../pic32c/lib/thumb/v7e-m+fp/hard\libpic32c.a(data_init.o)
 .debug_loc     0x0001ebae       0x51 c:/program files/microchip/xc32/v4.00/bin/bin/../../lib/gcc/pic32c/8.3.1/../../../../pic32c/lib/thumb/v7e-m+fp/hard\libc-musl.a(__libc_start_main.o)
 .debug_loc     0x0001ebff      0x10c c:/program files/microchip/xc32/v4.00/bin/bin/../../lib/gcc/pic32c/8.3.1/../../../../pic32c/lib/thumb/v7e-m+fp/hard\libc-musl.a(memcmp.o)
 .debug_loc     0x0001ed0b       0xba c:/program files/microchip/xc32/v4.00/bin/bin/../../lib/gcc/pic32c/8.3.1/../../../../pic32c/lib/thumb/v7e-m+fp/hard\libc-musl.a(memcpy.o)
 .debug_loc     0x0001edc5       0x56 c:/program files/microchip/xc32/v4.00/bin/bin/../../lib/gcc/pic32c/8.3.1/../../../../pic32c/lib/thumb/v7e-m+fp/hard\libc-musl.a(memset.o)
 .debug_loc     0x0001ee1b       0x47 c:/program files/microchip/xc32/v4.00/bin/bin/../../lib/gcc/pic32c/8.3.1/../../../../pic32c/lib/thumb/v7e-m+fp/hard\libc-musl.a(strlen.o)
 .debug_loc     0x0001ee62       0x83 c:/program files/microchip/xc32/v4.00/bin/bin/../../lib/gcc/pic32c/8.3.1/../../../../pic32c/lib/thumb/v7e-m+fp/hard\libc-musl.a(strstr.o)
 .debug_loc     0x0001eee5     0x1041 c:/program files/microchip/xc32/v4.00/bin/bin/../../lib/gcc/pic32c/8.3.1/thumb/v7e-m+fp/hard\libgcc.a(_udivmoddi4.o)

.debug_aranges  0x00000000     0x1378
 .debug_aranges
                0x00000000       0xb8 build/Artemis_PDU/production/_ext/1760076532/drv_sdspi.o
 .debug_aranges
                0x000000b8       0x20 build/Artemis_PDU/production/_ext/1760076532/drv_sdspi_file_system.o
 .debug_aranges
                0x000000d8       0x80 build/Artemis_PDU/production/_ext/1760076532/drv_sdspi_driver_interface.o
 .debug_aranges
                0x00000158       0x70 build/Artemis_PDU/production/_ext/1471363227/drv_spi.o
 .debug_aranges
                0x000001c8       0x90 build/Artemis_PDU/production/_ext/1624425958/osal_freertos.o
 .debug_aranges
                0x00000258       0x20 build/Artemis_PDU/production/_ext/1650922938/plib_clock.o
 .debug_aranges
                0x00000278       0x20 build/Artemis_PDU/production/_ext/1648773452/plib_evsys.o
 .debug_aranges
                0x00000298       0x38 build/Artemis_PDU/production/_ext/1022749782/plib_nvic.o
 .debug_aranges
                0x000002d0       0xc0 build/Artemis_PDU/production/_ext/236948536/plib_nvmctrl.o
 .debug_aranges
                0x00000390       0x70 build/Artemis_PDU/production/_ext/1022696631/plib_port.o
 .debug_aranges
                0x00000400       0xa0 build/Artemis_PDU/production/_ext/659748505/plib_rtc_timer.o
 .debug_aranges
                0x000004a0       0x68 build/Artemis_PDU/production/_ext/835284660/plib_sercom4_i2c_slave.o
 .debug_aranges
                0x00000508       0x60 build/Artemis_PDU/production/_ext/796654533/plib_sercom2_spi_master.o
 .debug_aranges
                0x00000568       0x98 build/Artemis_PDU/production/_ext/1679430495/plib_sercom3_usart.o
 .debug_aranges
                0x00000600      0x220 build/Artemis_PDU/production/_ext/401857885/ff.o
 .debug_aranges
                0x00000820       0x30 build/Artemis_PDU/production/_ext/401857885/ffunicode.o
 .debug_aranges
                0x00000850       0x58 build/Artemis_PDU/production/_ext/867183764/diskio.o
 .debug_aranges
                0x000008a8      0x170 build/Artemis_PDU/production/_ext/1111598889/sys_fs.o
 .debug_aranges
                0x00000a18       0x98 build/Artemis_PDU/production/_ext/1111598889/sys_fs_media_manager.o
 .debug_aranges
                0x00000ab0      0x130 build/Artemis_PDU/production/_ext/1111598889/sys_fs_fat_interface.o
 .debug_aranges
                0x00000be0       0x40 build/Artemis_PDU/production/_ext/1813730513/sys_int.o
 .debug_aranges
                0x00000c20      0x108 build/Artemis_PDU/production/_ext/1304864151/sys_time.o
 .debug_aranges
                0x00000d28       0x20 build/Artemis_PDU/production/_ext/974488028/initialization.o
 .debug_aranges
                0x00000d48       0x20 build/Artemis_PDU/production/_ext/974488028/interrupts.o
 .debug_aranges
                0x00000d68       0x48 build/Artemis_PDU/production/_ext/974488028/exceptions.o
 .debug_aranges
                0x00000db0       0x28 build/Artemis_PDU/production/_ext/974488028/startup_xc32.o
 .debug_aranges
                0x00000dd8       0x40 build/Artemis_PDU/production/_ext/974488028/freertos_hooks.o
 .debug_aranges
                0x00000e18       0x38 build/Artemis_PDU/production/_ext/974488028/tasks.o
 .debug_aranges
                0x00000e50       0x78 build/Artemis_PDU/production/_ext/246609638/port.o
 .debug_aranges
                0x00000ec8       0x38 build/Artemis_PDU/production/_ext/1665200909/heap_1.o
 .debug_aranges
                0x00000f00       0x40 build/Artemis_PDU/production/_ext/404212886/list.o
 .debug_aranges
                0x00000f40       0xc8 build/Artemis_PDU/production/_ext/404212886/queue.o
 .debug_aranges
                0x00001008      0x178 build/Artemis_PDU/production/_ext/404212886/FreeRTOS_tasks.o
 .debug_aranges
                0x00001180       0x20 build/Artemis_PDU/production/_ext/1360937237/main.o
 .debug_aranges
                0x000011a0       0x60 build/Artemis_PDU/production/_ext/1360937237/app.o
 .debug_aranges
                0x00001200       0x20 c:/program files/microchip/xc32/v4.00/bin/bin/../../lib/gcc/pic32c/8.3.1/../../../../pic32c/lib/thumb/v7e-m+fp/hard\libpic32c.a(data_init.o)
 .debug_aranges
                0x00001220       0x28 c:/program files/microchip/xc32/v4.00/bin/bin/../../lib/gcc/pic32c/8.3.1/../../../../pic32c/lib/thumb/v7e-m+fp/hard\libc-musl.a(__libc_start_main.o)
 .debug_aranges
                0x00001248       0x18 c:/program files/microchip/xc32/v4.00/bin/bin/../../lib/gcc/pic32c/8.3.1/../../../../pic32c/lib/thumb/v7e-m+fp/hard\libc-musl.a(libc.o)
 .debug_aranges
                0x00001260       0x20 c:/program files/microchip/xc32/v4.00/bin/bin/../../lib/gcc/pic32c/8.3.1/../../../../pic32c/lib/thumb/v7e-m+fp/hard\libc-musl.a(memcmp.o)
 .debug_aranges
                0x00001280       0x20 c:/program files/microchip/xc32/v4.00/bin/bin/../../lib/gcc/pic32c/8.3.1/../../../../pic32c/lib/thumb/v7e-m+fp/hard\libc-musl.a(memcpy.o)
 .debug_aranges
                0x000012a0       0x20 c:/program files/microchip/xc32/v4.00/bin/bin/../../lib/gcc/pic32c/8.3.1/../../../../pic32c/lib/thumb/v7e-m+fp/hard\libc-musl.a(memset.o)
 .debug_aranges
                0x000012c0       0x20 c:/program files/microchip/xc32/v4.00/bin/bin/../../lib/gcc/pic32c/8.3.1/../../../../pic32c/lib/thumb/v7e-m+fp/hard\libc-musl.a(strlen.o)
 .debug_aranges
                0x000012e0       0x20 c:/program files/microchip/xc32/v4.00/bin/bin/../../lib/gcc/pic32c/8.3.1/../../../../pic32c/lib/thumb/v7e-m+fp/hard\libc-musl.a(strstr.o)
 .debug_aranges
                0x00001300       0x18 c:/program files/microchip/xc32/v4.00/bin/bin/../../lib/gcc/pic32c/8.3.1/../../../../pic32c/lib/thumb/v7e-m+fp/hard\libc-musl.a(__environ.o)
 .debug_aranges
                0x00001318       0x20 c:/program files/microchip/xc32/v4.00/bin/bin/../../lib/gcc/pic32c/8.3.1/thumb/v7e-m+fp/hard\libgcc.a(_aeabi_uldivmod.o)
 .debug_aranges
                0x00001338       0x20 c:/program files/microchip/xc32/v4.00/bin/bin/../../lib/gcc/pic32c/8.3.1/thumb/v7e-m+fp/hard\libgcc.a(_udivmoddi4.o)
 .debug_aranges
                0x00001358       0x20 c:/program files/microchip/xc32/v4.00/bin/bin/../../lib/gcc/pic32c/8.3.1/thumb/v7e-m+fp/hard\libgcc.a(_dvmd_tls.o)

.debug_ranges   0x00000000     0x1808
 .debug_ranges  0x00000000      0x228 build/Artemis_PDU/production/_ext/1760076532/drv_sdspi.o
 .debug_ranges  0x00000228       0x10 build/Artemis_PDU/production/_ext/1760076532/drv_sdspi_file_system.o
 .debug_ranges  0x00000238       0x70 build/Artemis_PDU/production/_ext/1760076532/drv_sdspi_driver_interface.o
 .debug_ranges  0x000002a8       0x78 build/Artemis_PDU/production/_ext/1471363227/drv_spi.o
 .debug_ranges  0x00000320       0x80 build/Artemis_PDU/production/_ext/1624425958/osal_freertos.o
 .debug_ranges  0x000003a0       0x10 build/Artemis_PDU/production/_ext/1650922938/plib_clock.o
 .debug_ranges  0x000003b0       0x10 build/Artemis_PDU/production/_ext/1648773452/plib_evsys.o
 .debug_ranges  0x000003c0       0x28 build/Artemis_PDU/production/_ext/1022749782/plib_nvic.o
 .debug_ranges  0x000003e8       0xb0 build/Artemis_PDU/production/_ext/236948536/plib_nvmctrl.o
 .debug_ranges  0x00000498       0x60 build/Artemis_PDU/production/_ext/1022696631/plib_port.o
 .debug_ranges  0x000004f8       0x90 build/Artemis_PDU/production/_ext/659748505/plib_rtc_timer.o
 .debug_ranges  0x00000588       0x70 build/Artemis_PDU/production/_ext/835284660/plib_sercom4_i2c_slave.o
 .debug_ranges  0x000005f8       0x50 build/Artemis_PDU/production/_ext/796654533/plib_sercom2_spi_master.o
 .debug_ranges  0x00000648       0x88 build/Artemis_PDU/production/_ext/1679430495/plib_sercom3_usart.o
 .debug_ranges  0x000006d0      0x420 build/Artemis_PDU/production/_ext/401857885/ff.o
 .debug_ranges  0x00000af0       0x20 build/Artemis_PDU/production/_ext/401857885/ffunicode.o
 .debug_ranges  0x00000b10       0x60 build/Artemis_PDU/production/_ext/867183764/diskio.o
 .debug_ranges  0x00000b70      0x178 build/Artemis_PDU/production/_ext/1111598889/sys_fs.o
 .debug_ranges  0x00000ce8      0x110 build/Artemis_PDU/production/_ext/1111598889/sys_fs_media_manager.o
 .debug_ranges  0x00000df8      0x120 build/Artemis_PDU/production/_ext/1111598889/sys_fs_fat_interface.o
 .debug_ranges  0x00000f18       0x30 build/Artemis_PDU/production/_ext/1813730513/sys_int.o
 .debug_ranges  0x00000f48      0x160 build/Artemis_PDU/production/_ext/1304864151/sys_time.o
 .debug_ranges  0x000010a8       0x10 build/Artemis_PDU/production/_ext/974488028/initialization.o
 .debug_ranges  0x000010b8       0x10 build/Artemis_PDU/production/_ext/974488028/interrupts.o
 .debug_ranges  0x000010c8       0x38 build/Artemis_PDU/production/_ext/974488028/exceptions.o
 .debug_ranges  0x00001100       0x18 build/Artemis_PDU/production/_ext/974488028/startup_xc32.o
 .debug_ranges  0x00001118       0x30 build/Artemis_PDU/production/_ext/974488028/freertos_hooks.o
 .debug_ranges  0x00001148       0x28 build/Artemis_PDU/production/_ext/974488028/tasks.o
 .debug_ranges  0x00001170       0x68 build/Artemis_PDU/production/_ext/246609638/port.o
 .debug_ranges  0x000011d8       0x28 build/Artemis_PDU/production/_ext/1665200909/heap_1.o
 .debug_ranges  0x00001200       0x30 build/Artemis_PDU/production/_ext/404212886/list.o
 .debug_ranges  0x00001230      0x180 build/Artemis_PDU/production/_ext/404212886/queue.o
 .debug_ranges  0x000013b0      0x280 build/Artemis_PDU/production/_ext/404212886/FreeRTOS_tasks.o
 .debug_ranges  0x00001630       0x10 build/Artemis_PDU/production/_ext/1360937237/main.o
 .debug_ranges  0x00001640       0x50 build/Artemis_PDU/production/_ext/1360937237/app.o
 .debug_ranges  0x00001690       0x10 c:/program files/microchip/xc32/v4.00/bin/bin/../../lib/gcc/pic32c/8.3.1/../../../../pic32c/lib/thumb/v7e-m+fp/hard\libpic32c.a(data_init.o)
 .debug_ranges  0x000016a0       0x40 c:/program files/microchip/xc32/v4.00/bin/bin/../../lib/gcc/pic32c/8.3.1/../../../../pic32c/lib/thumb/v7e-m+fp/hard\libc-musl.a(__libc_start_main.o)
 .debug_ranges  0x000016e0       0x10 c:/program files/microchip/xc32/v4.00/bin/bin/../../lib/gcc/pic32c/8.3.1/../../../../pic32c/lib/thumb/v7e-m+fp/hard\libc-musl.a(memcmp.o)
 .debug_ranges  0x000016f0       0x10 c:/program files/microchip/xc32/v4.00/bin/bin/../../lib/gcc/pic32c/8.3.1/../../../../pic32c/lib/thumb/v7e-m+fp/hard\libc-musl.a(memcpy.o)
 .debug_ranges  0x00001700       0x10 c:/program files/microchip/xc32/v4.00/bin/bin/../../lib/gcc/pic32c/8.3.1/../../../../pic32c/lib/thumb/v7e-m+fp/hard\libc-musl.a(memset.o)
 .debug_ranges  0x00001710       0x10 c:/program files/microchip/xc32/v4.00/bin/bin/../../lib/gcc/pic32c/8.3.1/../../../../pic32c/lib/thumb/v7e-m+fp/hard\libc-musl.a(strlen.o)
 .debug_ranges  0x00001720       0x10 c:/program files/microchip/xc32/v4.00/bin/bin/../../lib/gcc/pic32c/8.3.1/../../../../pic32c/lib/thumb/v7e-m+fp/hard\libc-musl.a(strstr.o)
 .debug_ranges  0x00001730       0xd8 c:/program files/microchip/xc32/v4.00/bin/bin/../../lib/gcc/pic32c/8.3.1/thumb/v7e-m+fp/hard\libgcc.a(_udivmoddi4.o)

.debug_line     0x00000000    0x14fc7
 .debug_line    0x00000000     0x1498 build/Artemis_PDU/production/_ext/1760076532/drv_sdspi.o
 .debug_line    0x00001498      0x1b8 build/Artemis_PDU/production/_ext/1760076532/drv_sdspi_file_system.o
 .debug_line    0x00001650      0x547 build/Artemis_PDU/production/_ext/1760076532/drv_sdspi_driver_interface.o
 .debug_line    0x00001b97      0xa1d build/Artemis_PDU/production/_ext/1471363227/drv_spi.o
 .debug_line    0x000025b4      0x44f build/Artemis_PDU/production/_ext/1624425958/osal_freertos.o
 .debug_line    0x00002a03      0x2e6 build/Artemis_PDU/production/_ext/1650922938/plib_clock.o
 .debug_line    0x00002ce9       0xeb build/Artemis_PDU/production/_ext/1648773452/plib_evsys.o
 .debug_line    0x00002dd4      0x4bb build/Artemis_PDU/production/_ext/1022749782/plib_nvic.o
 .debug_line    0x0000328f      0x4e0 build/Artemis_PDU/production/_ext/236948536/plib_nvmctrl.o
 .debug_line    0x0000376f      0x421 build/Artemis_PDU/production/_ext/1022696631/plib_port.o
 .debug_line    0x00003b90      0x3d7 build/Artemis_PDU/production/_ext/659748505/plib_rtc_timer.o
 .debug_line    0x00003f67      0x3f5 build/Artemis_PDU/production/_ext/835284660/plib_sercom4_i2c_slave.o
 .debug_line    0x0000435c      0x700 build/Artemis_PDU/production/_ext/796654533/plib_sercom2_spi_master.o
 .debug_line    0x00004a5c      0x62c build/Artemis_PDU/production/_ext/1679430495/plib_sercom3_usart.o
 .debug_line    0x00005088     0x4d7a build/Artemis_PDU/production/_ext/401857885/ff.o
 .debug_line    0x00009e02      0x2f4 build/Artemis_PDU/production/_ext/401857885/ffunicode.o
 .debug_line    0x0000a0f6      0x3c9 build/Artemis_PDU/production/_ext/867183764/diskio.o
 .debug_line    0x0000a4bf     0x26e9 build/Artemis_PDU/production/_ext/1111598889/sys_fs.o
 .debug_line    0x0000cba8      0xe0e build/Artemis_PDU/production/_ext/1111598889/sys_fs_media_manager.o
 .debug_line    0x0000d9b6      0x9a9 build/Artemis_PDU/production/_ext/1111598889/sys_fs_fat_interface.o
 .debug_line    0x0000e35f      0x2cb build/Artemis_PDU/production/_ext/1813730513/sys_int.o
 .debug_line    0x0000e62a      0xef8 build/Artemis_PDU/production/_ext/1304864151/sys_time.o
 .debug_line    0x0000f522      0x783 build/Artemis_PDU/production/_ext/974488028/initialization.o
 .debug_line    0x0000fca5      0x203 build/Artemis_PDU/production/_ext/974488028/interrupts.o
 .debug_line    0x0000fea8      0x24a build/Artemis_PDU/production/_ext/974488028/exceptions.o
 .debug_line    0x000100f2      0x270 build/Artemis_PDU/production/_ext/974488028/startup_xc32.o
 .debug_line    0x00010362      0x1e7 build/Artemis_PDU/production/_ext/974488028/freertos_hooks.o
 .debug_line    0x00010549      0x362 build/Artemis_PDU/production/_ext/974488028/tasks.o
 .debug_line    0x000108ab      0x368 build/Artemis_PDU/production/_ext/246609638/port.o
 .debug_line    0x00010c13      0x1dd build/Artemis_PDU/production/_ext/1665200909/heap_1.o
 .debug_line    0x00010df0      0x2d7 build/Artemis_PDU/production/_ext/404212886/list.o
 .debug_line    0x000110c7      0xe8e build/Artemis_PDU/production/_ext/404212886/queue.o
 .debug_line    0x00011f55     0x175d build/Artemis_PDU/production/_ext/404212886/FreeRTOS_tasks.o
 .debug_line    0x000136b2      0x1e0 build/Artemis_PDU/production/_ext/1360937237/main.o
 .debug_line    0x00013892      0x593 build/Artemis_PDU/production/_ext/1360937237/app.o
 .debug_line    0x00013e25      0x110 c:/program files/microchip/xc32/v4.00/bin/bin/../../lib/gcc/pic32c/8.3.1/../../../../pic32c/lib/thumb/v7e-m+fp/hard\libpic32c.a(data_init.o)
 .debug_line    0x00013f35      0x24c c:/program files/microchip/xc32/v4.00/bin/bin/../../lib/gcc/pic32c/8.3.1/../../../../pic32c/lib/thumb/v7e-m+fp/hard\libc-musl.a(__libc_start_main.o)
 .debug_line    0x00014181      0x132 c:/program files/microchip/xc32/v4.00/bin/bin/../../lib/gcc/pic32c/8.3.1/../../../../pic32c/lib/thumb/v7e-m+fp/hard\libc-musl.a(libc.o)
 .debug_line    0x000142b3       0xe7 c:/program files/microchip/xc32/v4.00/bin/bin/../../lib/gcc/pic32c/8.3.1/../../../../pic32c/lib/thumb/v7e-m+fp/hard\libc-musl.a(memcmp.o)
 .debug_line    0x0001439a       0xf2 c:/program files/microchip/xc32/v4.00/bin/bin/../../lib/gcc/pic32c/8.3.1/../../../../pic32c/lib/thumb/v7e-m+fp/hard\libc-musl.a(memcpy.o)
 .debug_line    0x0001448c       0xea c:/program files/microchip/xc32/v4.00/bin/bin/../../lib/gcc/pic32c/8.3.1/../../../../pic32c/lib/thumb/v7e-m+fp/hard\libc-musl.a(memset.o)
 .debug_line    0x00014576       0xe6 c:/program files/microchip/xc32/v4.00/bin/bin/../../lib/gcc/pic32c/8.3.1/../../../../pic32c/lib/thumb/v7e-m+fp/hard\libc-musl.a(strlen.o)
 .debug_line    0x0001465c      0x116 c:/program files/microchip/xc32/v4.00/bin/bin/../../lib/gcc/pic32c/8.3.1/../../../../pic32c/lib/thumb/v7e-m+fp/hard\libc-musl.a(strstr.o)
 .debug_line    0x00014772      0x19f c:/program files/microchip/xc32/v4.00/bin/bin/../../lib/gcc/pic32c/8.3.1/../../../../pic32c/lib/thumb/v7e-m+fp/hard\libc-musl.a(__environ.o)
 .debug_line    0x00014911       0x9c c:/program files/microchip/xc32/v4.00/bin/bin/../../lib/gcc/pic32c/8.3.1/thumb/v7e-m+fp/hard\libgcc.a(_aeabi_uldivmod.o)
 .debug_line    0x000149ad      0x57e c:/program files/microchip/xc32/v4.00/bin/bin/../../lib/gcc/pic32c/8.3.1/thumb/v7e-m+fp/hard\libgcc.a(_udivmoddi4.o)
 .debug_line    0x00014f2b       0x9c c:/program files/microchip/xc32/v4.00/bin/bin/../../lib/gcc/pic32c/8.3.1/thumb/v7e-m+fp/hard\libgcc.a(_dvmd_tls.o)

.debug_str      0x00000000     0x1a6f
 .debug_str     0x00000000      0x2b0 build/Artemis_PDU/production/_ext/1760076532/drv_sdspi.o
 .debug_str     0x000002b0       0x1e build/Artemis_PDU/production/_ext/1760076532/drv_sdspi_file_system.o
 .debug_str     0x000002ce       0xd0 build/Artemis_PDU/production/_ext/1760076532/drv_sdspi_driver_interface.o
 .debug_str     0x0000039e      0x10d build/Artemis_PDU/production/_ext/1471363227/drv_spi.o
 .debug_str     0x000004ab      0x13b build/Artemis_PDU/production/_ext/1624425958/osal_freertos.o
 .debug_str     0x000005e6       0x1e build/Artemis_PDU/production/_ext/1650922938/plib_clock.o
 .debug_str     0x00000604        0x0 build/Artemis_PDU/production/_ext/1648773452/plib_evsys.o
 .debug_str     0x00000604        0xa build/Artemis_PDU/production/_ext/1022749782/plib_nvic.o
 .debug_str     0x0000060e       0x1b build/Artemis_PDU/production/_ext/236948536/plib_nvmctrl.o
 .debug_str     0x00000629        0xb build/Artemis_PDU/production/_ext/1022696631/plib_port.o
 .debug_str     0x00000634      0x115 build/Artemis_PDU/production/_ext/659748505/plib_rtc_timer.o
 .debug_str     0x00000749      0x120 build/Artemis_PDU/production/_ext/835284660/plib_sercom4_i2c_slave.o
 .debug_str     0x00000869      0x149 build/Artemis_PDU/production/_ext/796654533/plib_sercom2_spi_master.o
 .debug_str     0x000009b2      0x123 build/Artemis_PDU/production/_ext/1679430495/plib_sercom3_usart.o
 .debug_str     0x00000ad5       0x80 build/Artemis_PDU/production/_ext/401857885/ff.o
 .debug_str     0x00000b55        0x0 build/Artemis_PDU/production/_ext/401857885/ffunicode.o
 .debug_str     0x00000b55       0xed build/Artemis_PDU/production/_ext/867183764/diskio.o
 .debug_str     0x00000c42      0x153 build/Artemis_PDU/production/_ext/1111598889/sys_fs.o
 .debug_str     0x00000d95       0xd2 build/Artemis_PDU/production/_ext/1111598889/sys_fs_media_manager.o
 .debug_str     0x00000e67       0x96 build/Artemis_PDU/production/_ext/1111598889/sys_fs_fat_interface.o
 .debug_str     0x00000efd       0x32 build/Artemis_PDU/production/_ext/1813730513/sys_int.o
 .debug_str     0x00000f2f       0xf4 build/Artemis_PDU/production/_ext/1304864151/sys_time.o
 .debug_str     0x00001023      0x15f build/Artemis_PDU/production/_ext/974488028/initialization.o
 .debug_str     0x00001182        0x0 build/Artemis_PDU/production/_ext/974488028/interrupts.o
 .debug_str     0x00001182        0x0 build/Artemis_PDU/production/_ext/974488028/exceptions.o
 .debug_str     0x00001182       0x2f build/Artemis_PDU/production/_ext/974488028/startup_xc32.o
 .debug_str     0x000011b1       0x25 build/Artemis_PDU/production/_ext/974488028/freertos_hooks.o
 .debug_str     0x000011d6       0x5f build/Artemis_PDU/production/_ext/974488028/tasks.o
 .debug_str     0x00001235       0x26 build/Artemis_PDU/production/_ext/246609638/port.o
 .debug_str     0x0000125b       0x3c build/Artemis_PDU/production/_ext/1665200909/heap_1.o
 .debug_str     0x00001297       0x2b build/Artemis_PDU/production/_ext/404212886/list.o
 .debug_str     0x000012c2      0x27f build/Artemis_PDU/production/_ext/404212886/queue.o
 .debug_str     0x00001541      0x275 build/Artemis_PDU/production/_ext/404212886/FreeRTOS_tasks.o
 .debug_str     0x000017b6       0x19 build/Artemis_PDU/production/_ext/1360937237/main.o
 .debug_str     0x000017cf       0xc0 build/Artemis_PDU/production/_ext/1360937237/app.o
 .debug_str     0x0000188f        0x0 c:/program files/microchip/xc32/v4.00/bin/bin/../../lib/gcc/pic32c/8.3.1/../../../../pic32c/lib/thumb/v7e-m+fp/hard\libpic32c.a(data_init.o)
 .debug_str     0x0000188f        0x0 c:/program files/microchip/xc32/v4.00/bin/bin/../../lib/gcc/pic32c/8.3.1/../../../../pic32c/lib/thumb/v7e-m+fp/hard\libc-musl.a(__libc_start_main.o)
 .debug_str     0x0000188f        0x0 c:/program files/microchip/xc32/v4.00/bin/bin/../../lib/gcc/pic32c/8.3.1/../../../../pic32c/lib/thumb/v7e-m+fp/hard\libc-musl.a(libc.o)
 .debug_str     0x0000188f        0x0 c:/program files/microchip/xc32/v4.00/bin/bin/../../lib/gcc/pic32c/8.3.1/../../../../pic32c/lib/thumb/v7e-m+fp/hard\libc-musl.a(memcmp.o)
 .debug_str     0x0000188f        0x0 c:/program files/microchip/xc32/v4.00/bin/bin/../../lib/gcc/pic32c/8.3.1/../../../../pic32c/lib/thumb/v7e-m+fp/hard\libc-musl.a(memcpy.o)
 .debug_str     0x0000188f        0x0 c:/program files/microchip/xc32/v4.00/bin/bin/../../lib/gcc/pic32c/8.3.1/../../../../pic32c/lib/thumb/v7e-m+fp/hard\libc-musl.a(memset.o)
 .debug_str     0x0000188f        0x0 c:/program files/microchip/xc32/v4.00/bin/bin/../../lib/gcc/pic32c/8.3.1/../../../../pic32c/lib/thumb/v7e-m+fp/hard\libc-musl.a(strlen.o)
 .debug_str     0x0000188f        0x0 c:/program files/microchip/xc32/v4.00/bin/bin/../../lib/gcc/pic32c/8.3.1/../../../../pic32c/lib/thumb/v7e-m+fp/hard\libc-musl.a(strstr.o)
 .debug_str     0x0000188f        0x0 c:/program files/microchip/xc32/v4.00/bin/bin/../../lib/gcc/pic32c/8.3.1/../../../../pic32c/lib/thumb/v7e-m+fp/hard\libc-musl.a(__environ.o)
 .debug_str     0x0000188f       0xee c:/program files/microchip/xc32/v4.00/bin/bin/../../lib/gcc/pic32c/8.3.1/thumb/v7e-m+fp/hard\libgcc.a(_aeabi_uldivmod.o)
 .debug_str     0x0000197d        0x0 c:/program files/microchip/xc32/v4.00/bin/bin/../../lib/gcc/pic32c/8.3.1/thumb/v7e-m+fp/hard\libgcc.a(_udivmoddi4.o)
 .debug_str     0x0000197d       0xf2 c:/program files/microchip/xc32/v4.00/bin/bin/../../lib/gcc/pic32c/8.3.1/thumb/v7e-m+fp/hard\libgcc.a(_dvmd_tls.o)

.debug_frame    0x00000000     0x3434
 .debug_frame   0x00000000      0x260 build/Artemis_PDU/production/_ext/1760076532/drv_sdspi.o
 .debug_frame   0x00000260       0x28 build/Artemis_PDU/production/_ext/1760076532/drv_sdspi_file_system.o
 .debug_frame   0x00000288      0x14c build/Artemis_PDU/production/_ext/1760076532/drv_sdspi_driver_interface.o
 .debug_frame   0x000003d4      0x160 build/Artemis_PDU/production/_ext/1471363227/drv_spi.o
 .debug_frame   0x00000534      0x180 build/Artemis_PDU/production/_ext/1624425958/osal_freertos.o
 .debug_frame   0x000006b4       0x20 build/Artemis_PDU/production/_ext/1650922938/plib_clock.o
 .debug_frame   0x000006d4       0x20 build/Artemis_PDU/production/_ext/1648773452/plib_evsys.o
 .debug_frame   0x000006f4       0x50 build/Artemis_PDU/production/_ext/1022749782/plib_nvic.o
 .debug_frame   0x00000744      0x19c build/Artemis_PDU/production/_ext/236948536/plib_nvmctrl.o
 .debug_frame   0x000008e0       0xd8 build/Artemis_PDU/production/_ext/1022696631/plib_port.o
 .debug_frame   0x000009b8      0x128 build/Artemis_PDU/production/_ext/659748505/plib_rtc_timer.o
 .debug_frame   0x00000ae0       0xbc build/Artemis_PDU/production/_ext/835284660/plib_sercom4_i2c_slave.o
 .debug_frame   0x00000b9c       0xdc build/Artemis_PDU/production/_ext/796654533/plib_sercom2_spi_master.o
 .debug_frame   0x00000c78      0x15c build/Artemis_PDU/production/_ext/1679430495/plib_sercom3_usart.o
 .debug_frame   0x00000dd4      0x8f0 build/Artemis_PDU/production/_ext/401857885/ff.o
 .debug_frame   0x000016c4       0x5c build/Artemis_PDU/production/_ext/401857885/ffunicode.o
 .debug_frame   0x00001720       0xd0 build/Artemis_PDU/production/_ext/867183764/diskio.o
 .debug_frame   0x000017f0      0x5c0 build/Artemis_PDU/production/_ext/1111598889/sys_fs.o
 .debug_frame   0x00001db0      0x1e0 build/Artemis_PDU/production/_ext/1111598889/sys_fs_media_manager.o
 .debug_frame   0x00001f90      0x36c build/Artemis_PDU/production/_ext/1111598889/sys_fs_fat_interface.o
 .debug_frame   0x000022fc       0x84 build/Artemis_PDU/production/_ext/1813730513/sys_int.o
 .debug_frame   0x00002380      0x380 build/Artemis_PDU/production/_ext/1304864151/sys_time.o
 .debug_frame   0x00002700       0x28 build/Artemis_PDU/production/_ext/974488028/initialization.o
 .debug_frame   0x00002728       0x20 build/Artemis_PDU/production/_ext/974488028/interrupts.o
 .debug_frame   0x00002748       0x70 build/Artemis_PDU/production/_ext/974488028/exceptions.o
 .debug_frame   0x000027b8       0x38 build/Artemis_PDU/production/_ext/974488028/startup_xc32.o
 .debug_frame   0x000027f0       0x6c build/Artemis_PDU/production/_ext/974488028/freertos_hooks.o
 .debug_frame   0x0000285c       0x7c build/Artemis_PDU/production/_ext/974488028/tasks.o
 .debug_frame   0x000028d8       0xe8 build/Artemis_PDU/production/_ext/246609638/port.o
 .debug_frame   0x000029c0       0x5c build/Artemis_PDU/production/_ext/1665200909/heap_1.o
 .debug_frame   0x00002a1c       0x6c build/Artemis_PDU/production/_ext/404212886/list.o
 .debug_frame   0x00002a88      0x280 build/Artemis_PDU/production/_ext/404212886/queue.o
 .debug_frame   0x00002d08      0x478 build/Artemis_PDU/production/_ext/404212886/FreeRTOS_tasks.o
 .debug_frame   0x00003180       0x28 build/Artemis_PDU/production/_ext/1360937237/main.o
 .debug_frame   0x000031a8       0xf4 build/Artemis_PDU/production/_ext/1360937237/app.o
 .debug_frame   0x0000329c       0x38 c:/program files/microchip/xc32/v4.00/bin/bin/../../lib/gcc/pic32c/8.3.1/../../../../pic32c/lib/thumb/v7e-m+fp/hard\libpic32c.a(data_init.o)
 .debug_frame   0x000032d4       0x3c c:/program files/microchip/xc32/v4.00/bin/bin/../../lib/gcc/pic32c/8.3.1/../../../../pic32c/lib/thumb/v7e-m+fp/hard\libc-musl.a(__libc_start_main.o)
 .debug_frame   0x00003310       0x2c c:/program files/microchip/xc32/v4.00/bin/bin/../../lib/gcc/pic32c/8.3.1/../../../../pic32c/lib/thumb/v7e-m+fp/hard\libc-musl.a(memcmp.o)
 .debug_frame   0x0000333c       0x28 c:/program files/microchip/xc32/v4.00/bin/bin/../../lib/gcc/pic32c/8.3.1/../../../../pic32c/lib/thumb/v7e-m+fp/hard\libc-musl.a(memcpy.o)
 .debug_frame   0x00003364       0x20 c:/program files/microchip/xc32/v4.00/bin/bin/../../lib/gcc/pic32c/8.3.1/../../../../pic32c/lib/thumb/v7e-m+fp/hard\libc-musl.a(memset.o)
 .debug_frame   0x00003384       0x20 c:/program files/microchip/xc32/v4.00/bin/bin/../../lib/gcc/pic32c/8.3.1/../../../../pic32c/lib/thumb/v7e-m+fp/hard\libc-musl.a(strlen.o)
 .debug_frame   0x000033a4       0x30 c:/program files/microchip/xc32/v4.00/bin/bin/../../lib/gcc/pic32c/8.3.1/../../../../pic32c/lib/thumb/v7e-m+fp/hard\libc-musl.a(strstr.o)
 .debug_frame   0x000033d4       0x2c c:/program files/microchip/xc32/v4.00/bin/bin/../../lib/gcc/pic32c/8.3.1/thumb/v7e-m+fp/hard\libgcc.a(_aeabi_uldivmod.o)
 .debug_frame   0x00003400       0x34 c:/program files/microchip/xc32/v4.00/bin/bin/../../lib/gcc/pic32c/8.3.1/thumb/v7e-m+fp/hard\libgcc.a(_udivmoddi4.o)

.note.GNU-stack
                0x00000000        0x0
 .note.GNU-stack
                0x00000000        0x0 c:/program files/microchip/xc32/v4.00/bin/bin/../../lib/gcc/pic32c/8.3.1/../../../../pic32c/lib/thumb/v7e-m+fp/hard\libc-musl.a(__libc_start_main.o)
 .note.GNU-stack
                0x00000000        0x0 c:/program files/microchip/xc32/v4.00/bin/bin/../../lib/gcc/pic32c/8.3.1/../../../../pic32c/lib/thumb/v7e-m+fp/hard\libc-musl.a(libc.o)
 .note.GNU-stack
                0x00000000        0x0 c:/program files/microchip/xc32/v4.00/bin/bin/../../lib/gcc/pic32c/8.3.1/../../../../pic32c/lib/thumb/v7e-m+fp/hard\libc-musl.a(memcmp.o)
 .note.GNU-stack
                0x00000000        0x0 c:/program files/microchip/xc32/v4.00/bin/bin/../../lib/gcc/pic32c/8.3.1/../../../../pic32c/lib/thumb/v7e-m+fp/hard\libc-musl.a(memcpy.o)
 .note.GNU-stack
                0x00000000        0x0 c:/program files/microchip/xc32/v4.00/bin/bin/../../lib/gcc/pic32c/8.3.1/../../../../pic32c/lib/thumb/v7e-m+fp/hard\libc-musl.a(memset.o)
 .note.GNU-stack
                0x00000000        0x0 c:/program files/microchip/xc32/v4.00/bin/bin/../../lib/gcc/pic32c/8.3.1/../../../../pic32c/lib/thumb/v7e-m+fp/hard\libc-musl.a(strlen.o)
 .note.GNU-stack
                0x00000000        0x0 c:/program files/microchip/xc32/v4.00/bin/bin/../../lib/gcc/pic32c/8.3.1/../../../../pic32c/lib/thumb/v7e-m+fp/hard\libc-musl.a(strstr.o)
 .note.GNU-stack
                0x00000000        0x0 c:/program files/microchip/xc32/v4.00/bin/bin/../../lib/gcc/pic32c/8.3.1/../../../../pic32c/lib/thumb/v7e-m+fp/hard\libc-musl.a(__environ.o)

.stack          0x2000b860      0x100
 .stack         0x2000b860      0x100 stack

.bss.ucHeap%1   0x20000000     0xa000
 .bss.ucHeap    0x20000000     0xa000 build/Artemis_PDU/production/_ext/1665200909/heap_1.o

.bss.FATFSVolume%2
                0x2000a000      0x250
 .bss.FATFSVolume
                0x2000a000      0x250 build/Artemis_PDU/production/_ext/1111598889/sys_fs_fat_interface.o

.bss.FATFSFileObject%3
                0x2000a250      0x240
 .bss.FATFSFileObject
                0x2000a250      0x240 build/Artemis_PDU/production/_ext/1111598889/sys_fs_fat_interface.o

.bss.FatFs%4    0x2000a490      0x240
 .bss.FatFs     0x2000a490      0x240 build/Artemis_PDU/production/_ext/1360937237/app.o
                0x2000a490                FatFs

.bss.Fil%5      0x2000a6d0      0x230
 .bss.Fil       0x2000a6d0      0x230 build/Artemis_PDU/production/_ext/1360937237/app.o
                0x2000a6d0                Fil

.bss.LfnBuf%6   0x2000a900      0x200
 .bss.LfnBuf    0x2000a900      0x200 build/Artemis_PDU/production/_ext/401857885/ff.o

.bss.gSYSFSMediaBlockBuffer%7
                0x2000ab00      0x200
 .bss.gSYSFSMediaBlockBuffer
                0x2000ab00      0x200 build/Artemis_PDU/production/_ext/1111598889/sys_fs_media_manager.o
                0x2000ab00                gSYSFSMediaBlockBuffer

.bss.gSYSFSMediaBuffer%8
                0x2000ad00      0x200
 .bss.gSYSFSMediaBuffer
                0x2000ad00      0x200 build/Artemis_PDU/production/_ext/1111598889/sys_fs_media_manager.o
                0x2000ad00                gSYSFSMediaBuffer

.bss.gSYSFSFileObj%9
                0x2000af00      0x110
 .bss.gSYSFSFileObj
                0x2000af00      0x110 build/Artemis_PDU/production/_ext/1111598889/sys_fs.o
                0x2000af00                gSYSFSFileObj

.bss.receiveBuffer%10
                0x2000b010      0x100
 .bss.receiveBuffer
                0x2000b010      0x100 build/Artemis_PDU/production/_ext/1360937237/app.o
                0x2000b010                receiveBuffer

.bss.gDrvSDSPIObj%11
                0x2000b110       0xe0
 .bss.gDrvSDSPIObj
                0x2000b110       0xe0 build/Artemis_PDU/production/_ext/1760076532/drv_sdspi.o

.bss.timers%12  0x2000b1f0       0xa0
 .bss.timers    0x2000b1f0       0xa0 build/Artemis_PDU/production/_ext/1304864151/sys_time.o

.bss.pxReadyTasksLists%13
                0x2000b290       0x64
 .bss.pxReadyTasksLists
                0x2000b290       0x64 build/Artemis_PDU/production/_ext/404212886/FreeRTOS_tasks.o

.bss%14         0x2000b2f4       0x50
 .bss           0x2000b2f4       0x50 c:/program files/microchip/xc32/v4.00/bin/bin/../../lib/gcc/pic32c/8.3.1/../../../../pic32c/lib/thumb/v7e-m+fp/hard\libc-musl.a(libc.o)
                0x2000b2f4                __progname_full
                0x2000b2f4                program_invocation_name
                0x2000b2f8                program_invocation_short_name
                0x2000b2f8                __progname
                0x2000b2fc                __sysinfo
                0x2000b300                __hwcap
                0x2000b304                __libc

.bss.gDrvSPIObj%15
                0x2000b344       0x48
 .bss.gDrvSPIObj
                0x2000b344       0x48 build/Artemis_PDU/production/_ext/1471363227/drv_spi.o

.bss.FATFSDirObject%16
                0x2000b390       0x38
 .bss.FATFSDirObject
                0x2000b390       0x38 build/Artemis_PDU/production/_ext/1111598889/sys_fs_fat_interface.o

.bss.sercom2SPIObj%17
                0x2000b3c8       0x2c
 .bss.sercom2SPIObj
                0x2000b3c8       0x2c build/Artemis_PDU/production/_ext/796654533/plib_sercom2_spi_master.o

.bss.gSYSFSMediaObject%18
                0x2000b3f4       0x28
 .bss.gSYSFSMediaObject
                0x2000b3f4       0x28 build/Artemis_PDU/production/_ext/1111598889/sys_fs_media_manager.o
                0x2000b3f4                gSYSFSMediaObject

.bss.gSystemCounterObj%19
                0x2000b41c       0x28
 .bss.gSystemCounterObj
                0x2000b41c       0x28 build/Artemis_PDU/production/_ext/1304864151/sys_time.o

.bss.drvSPI0ClientObjPool%20
                0x2000b444       0x24
 .bss.drvSPI0ClientObjPool
                0x2000b444       0x24 build/Artemis_PDU/production/_ext/974488028/initialization.o

.bss%21         0x2000b468       0x1c
 .bss           0x2000b468       0x1c c:/program files/microchip/xc32/v4.00/bin/bin/../../lib/gcc/pic32c/8.3.1/thumb/v7e-m+fp/hard/crtbegin.o

.bss.gSYSFSVolumeObject%22
                0x2000b484       0x1c
 .bss.gSYSFSVolumeObject
                0x2000b484       0x1c build/Artemis_PDU/production/_ext/1111598889/sys_fs_media_manager.o
                0x2000b484                gSYSFSVolumeObject

.data.gSYSFSMediaManagerObj%23
                0x2000b4a0       0x18
 .data.gSYSFSMediaManagerObj
                0x2000b4a0       0x18 build/Artemis_PDU/production/_ext/1111598889/sys_fs_media_manager.o
                0x2000b4a0                gSYSFSMediaManagerObj

.bss.gSYSFSMountPoint%24
                0x2000b4b8       0x14
 .bss.gSYSFSMountPoint
                0x2000b4b8       0x14 build/Artemis_PDU/production/_ext/1111598889/sys_fs.o
                0x2000b4b8                gSYSFSMountPoint

.data.gSYSFSVolumeName%25
                0x2000b4cc       0x14
 .data.gSYSFSVolumeName
                0x2000b4cc       0x14 build/Artemis_PDU/production/_ext/1111598889/sys_fs_media_manager.o
                0x2000b4cc                gSYSFSVolumeName

.bss.xDelayedTaskList1%26
                0x2000b4e0       0x14
 .bss.xDelayedTaskList1
                0x2000b4e0       0x14 build/Artemis_PDU/production/_ext/404212886/FreeRTOS_tasks.o

.bss.xDelayedTaskList2%27
                0x2000b4f4       0x14
 .bss.xDelayedTaskList2
                0x2000b4f4       0x14 build/Artemis_PDU/production/_ext/404212886/FreeRTOS_tasks.o

.bss.xPendingReadyList%28
                0x2000b508       0x14
 .bss.xPendingReadyList
                0x2000b508       0x14 build/Artemis_PDU/production/_ext/404212886/FreeRTOS_tasks.o

.bss.xSuspendedTaskList%29
                0x2000b51c       0x14
 .bss.xSuspendedTaskList
                0x2000b51c       0x14 build/Artemis_PDU/production/_ext/404212886/FreeRTOS_tasks.o

.bss.xTasksWaitingTermination%30
                0x2000b530       0x14
 .bss.xTasksWaitingTermination
                0x2000b530       0x14 build/Artemis_PDU/production/_ext/404212886/FreeRTOS_tasks.o

.bss.Files%31   0x2000b544       0x10
 .bss.Files     0x2000b544       0x10 build/Artemis_PDU/production/_ext/401857885/ff.o

.bss.gSYSFSDirObj%32
                0x2000b554       0x10
 .bss.gSYSFSDirObj
                0x2000b554       0x10 build/Artemis_PDU/production/_ext/1111598889/sys_fs.o
                0x2000b554                gSYSFSDirObj

.bss.drvSDSPI0ClientObjPool%33
                0x2000b564       0x10
 .bss.drvSDSPI0ClientObjPool
                0x2000b564       0x10 build/Artemis_PDU/production/_ext/974488028/initialization.o

.data.SD_MOUNT_FAIL%34
                0x2000b574       0x10
 .data.SD_MOUNT_FAIL
                0x2000b574       0x10 build/Artemis_PDU/production/_ext/1360937237/app.o
                0x2000b574                SD_MOUNT_FAIL

.data.SD_SUCCESS_MSG%35
                0x2000b584        0xd
 .data.SD_SUCCESS_MSG
                0x2000b584        0xd build/Artemis_PDU/production/_ext/1360937237/app.o
                0x2000b584                SD_SUCCESS_MSG

.bss.sysObj%36  0x2000b594        0xc
 .bss.sysObj    0x2000b594        0xc build/Artemis_PDU/production/_ext/974488028/initialization.o
                0x2000b594                sysObj

.bss.sysfsMountTable%37
                0x2000b5a0        0xc
 .bss.sysfsMountTable
                0x2000b5a0        0xc build/Artemis_PDU/production/_ext/974488028/initialization.o
                0x2000b5a0                sysfsMountTable

.data.SD_FAILED_MSG%38
                0x2000b5ac        0xa
 .data.SD_FAILED_MSG
                0x2000b5ac        0xa build/Artemis_PDU/production/_ext/1360937237/app.o
                0x2000b5ac                SD_FAILED_MSG

.bss.gSysFsDiskData%39
                0x2000b5c0        0x8
 .bss.gSysFsDiskData
                0x2000b5c0        0x8 build/Artemis_PDU/production/_ext/867183764/diskio.o

.bss.rtcObj%40  0x2000b5c8        0xc
 .bss.rtcObj    0x2000b5c8        0xc build/Artemis_PDU/production/_ext/659748505/plib_rtc_timer.o

.bss.sercom4I2CSObj%41
                0x2000b5d4        0xc
 .bss.sercom4I2CSObj
                0x2000b5d4        0xc build/Artemis_PDU/production/_ext/835284660/plib_sercom4_i2c_slave.o

.bss.gSYSFSObj%42
                0x2000b5b8        0x8
 .bss.gSYSFSObj
                0x2000b5b8        0x8 build/Artemis_PDU/production/_ext/1111598889/sys_fs.o
                0x2000b5b8                gSYSFSObj

.bss.FatFs%43   0x2000b38c        0x4
 .bss.FatFs     0x2000b38c        0x4 build/Artemis_PDU/production/_ext/401857885/ff.o

.bss.gSysFsMutex%44
                0x2000b5e0        0x4
 .bss.gSysFsMutex
                0x2000b5e0        0x4 build/Artemis_PDU/production/_ext/1111598889/sys_fs.o
                0x2000b5e0                gSysFsMutex

.bss.xAPP_Tasks%45
                0x2000b5e4        0x4
 .bss.xAPP_Tasks
                0x2000b5e4        0x4 build/Artemis_PDU/production/_ext/974488028/tasks.o
                0x2000b5e4                xAPP_Tasks

.data.uxCriticalNesting%46
                0x2000b5e8        0x4
 .data.uxCriticalNesting
                0x2000b5e8        0x4 build/Artemis_PDU/production/_ext/246609638/port.o

.bss.pucAlignedHeap.6163%47
                0x2000b5ec        0x4
 .bss.pucAlignedHeap.6163
                0x2000b5ec        0x4 build/Artemis_PDU/production/_ext/1665200909/heap_1.o

.bss.xNextFreeByte%48
                0x2000b5f0        0x4
 .bss.xNextFreeByte
                0x2000b5f0        0x4 build/Artemis_PDU/production/_ext/1665200909/heap_1.o

.bss.pxCurrentTCB%49
                0x2000b5f4        0x4
 .bss.pxCurrentTCB
                0x2000b5f4        0x4 build/Artemis_PDU/production/_ext/404212886/FreeRTOS_tasks.o
                0x2000b5f4                pxCurrentTCB

.bss.pxDelayedTaskList%50
                0x2000b5f8        0x4
 .bss.pxDelayedTaskList
                0x2000b5f8        0x4 build/Artemis_PDU/production/_ext/404212886/FreeRTOS_tasks.o

.bss.pxOverflowDelayedTaskList%51
                0x2000b5fc        0x4
 .bss.pxOverflowDelayedTaskList
                0x2000b5fc        0x4 build/Artemis_PDU/production/_ext/404212886/FreeRTOS_tasks.o

.bss.uxCurrentNumberOfTasks%52
                0x2000b600        0x4
 .bss.uxCurrentNumberOfTasks
                0x2000b600        0x4 build/Artemis_PDU/production/_ext/404212886/FreeRTOS_tasks.o

.bss.uxDeletedTasksWaitingCleanUp%53
                0x2000b604        0x4
 .bss.uxDeletedTasksWaitingCleanUp
                0x2000b604        0x4 build/Artemis_PDU/production/_ext/404212886/FreeRTOS_tasks.o

.bss.uxSchedulerSuspended%54
                0x2000b608        0x4
 .bss.uxSchedulerSuspended
                0x2000b608        0x4 build/Artemis_PDU/production/_ext/404212886/FreeRTOS_tasks.o

.bss.uxTaskNumber%55
                0x2000b60c        0x4
 .bss.uxTaskNumber
                0x2000b60c        0x4 build/Artemis_PDU/production/_ext/404212886/FreeRTOS_tasks.o

.bss.uxTopReadyPriority%56
                0x2000b610        0x4
 .bss.uxTopReadyPriority
                0x2000b610        0x4 build/Artemis_PDU/production/_ext/404212886/FreeRTOS_tasks.o

.bss.xIdleTaskHandle%57
                0x2000b614        0x4
 .bss.xIdleTaskHandle
                0x2000b614        0x4 build/Artemis_PDU/production/_ext/404212886/FreeRTOS_tasks.o

.bss.xNextTaskUnblockTime%58
                0x2000b618        0x4
 .bss.xNextTaskUnblockTime
                0x2000b618        0x4 build/Artemis_PDU/production/_ext/404212886/FreeRTOS_tasks.o

.bss.xNumOfOverflows%59
                0x2000b61c        0x4
 .bss.xNumOfOverflows
                0x2000b61c        0x4 build/Artemis_PDU/production/_ext/404212886/FreeRTOS_tasks.o

.bss.xPendedTicks%60
                0x2000b620        0x4
 .bss.xPendedTicks
                0x2000b620        0x4 build/Artemis_PDU/production/_ext/404212886/FreeRTOS_tasks.o

.bss.xSchedulerRunning%61
                0x2000b624        0x4
 .bss.xSchedulerRunning
                0x2000b624        0x4 build/Artemis_PDU/production/_ext/404212886/FreeRTOS_tasks.o

.bss.xTickCount%62
                0x2000b628        0x4
 .bss.xTickCount
                0x2000b628        0x4 build/Artemis_PDU/production/_ext/404212886/FreeRTOS_tasks.o

.bss.xYieldPending%63
                0x2000b62c        0x4
 .bss.xYieldPending
                0x2000b62c        0x4 build/Artemis_PDU/production/_ext/404212886/FreeRTOS_tasks.o

.bss.bw%64      0x2000b630        0x4
 .bss.bw        0x2000b630        0x4 build/Artemis_PDU/production/_ext/1360937237/app.o
                0x2000b630                bw

.bss%65         0x2000b634        0x8
 .bss           0x2000b634        0x4 c:/program files/microchip/xc32/v4.00/bin/bin/../../lib/gcc/pic32c/8.3.1/../../../../pic32c/lib/thumb/v7e-m+fp/hard\libpic32c.a(data_init.o)
 .bss           0x2000b638        0x4 c:/program files/microchip/xc32/v4.00/bin/bin/../../lib/gcc/pic32c/8.3.1/../../../../pic32c/lib/thumb/v7e-m+fp/hard\libc-musl.a(__environ.o)
                0x2000b638                __environ
                0x2000b638                environ
                0x2000b638                ___environ
                0x2000b638                _environ

.data.newline%67
                0x2000b63c        0x3
 .data.newline  0x2000b63c        0x3 build/Artemis_PDU/production/_ext/1360937237/app.o
                0x2000b63c                newline

.bss.VolToPart%68
                0x2000b640        0x2
 .bss.VolToPart
                0x2000b640        0x2 build/Artemis_PDU/production/_ext/1111598889/sys_fs_media_manager.o
                0x2000b640                VolToPart

.bss.Fsid%69    0x2000b5b6        0x2
 .bss.Fsid      0x2000b5b6        0x2 build/Artemis_PDU/production/_ext/401857885/ff.o

.data.gSysTimeTokenCount%70
                0x2000b592        0x2
 .data.gSysTimeTokenCount
                0x2000b592        0x2 build/Artemis_PDU/production/_ext/1304864151/sys_time.o

.bss.rxCounter%71
                0x2000b642        0x2
 .bss.rxCounter
                0x2000b642        0x2 build/Artemis_PDU/production/_ext/1360937237/app.o
                0x2000b642                rxCounter

.bss.isExclusiveUseMutexAcquired.9262%72
                0x2000b63f        0x1
 .bss.isExclusiveUseMutexAcquired.9262
                0x2000b63f        0x1 build/Artemis_PDU/production/_ext/1471363227/drv_spi.o

.bss.isLastByteTransferInProgress.8082%73
                0x2000b591        0x1
 .bss.isLastByteTransferInProgress.8082
                0x2000b591        0x1 build/Artemis_PDU/production/_ext/796654533/plib_sercom2_spi_master.o

.bss.CurrVol%74
                0x2000b644        0x1
 .bss.CurrVol   0x2000b644        0x1 build/Artemis_PDU/production/_ext/401857885/ff.o

.bss.startupflag%75
                0x2000b645        0x1
 .bss.startupflag
                0x2000b645        0x1 build/Artemis_PDU/production/_ext/1111598889/sys_fs_fat_interface.o

.bss.data%76    0x2000b646        0x1
 .bss.data      0x2000b646        0x1 build/Artemis_PDU/production/_ext/1360937237/app.o
                0x2000b646                data

.eh_frame%z1    0x00000000        0x0
 .eh_frame      0x00000000        0x0 c:/program files/microchip/xc32/v4.00/bin/bin/../../lib/gcc/pic32c/8.3.1/thumb/v7e-m+fp/hard/crtbegin.o

.config_00804000.__config_00804000%77
                0x00804000        0x4
 .config_00804000.__config_00804000
                0x00804000        0x4 build/Artemis_PDU/production/_ext/974488028/initialization.o
                0x00804000                __config_00804000

.config_00804004.__config_00804004%78
                0x00804004        0x4
 .config_00804004.__config_00804004
                0x00804004        0x4 build/Artemis_PDU/production/_ext/974488028/initialization.o
                0x00804004                __config_00804004

.config_00804008.__config_00804008%79
                0x00804008        0x4
 .config_00804008.__config_00804008
                0x00804008        0x4 build/Artemis_PDU/production/_ext/974488028/initialization.o
                0x00804008                __config_00804008

.text.f_mkfs%80
                0x00000288      0x808
 .text.f_mkfs   0x00000288      0x808 build/Artemis_PDU/production/_ext/401857885/ff.o
                0x00000288                f_mkfs

.text.DRV_SDSPI_Tasks%81
                0x00000a90      0x6a0
 .text.DRV_SDSPI_Tasks
                0x00000a90      0x6a0 build/Artemis_PDU/production/_ext/1760076532/drv_sdspi.o
                0x00000a90                DRV_SDSPI_Tasks

.dinit%82       0x00001130      0x400
 .dinit         0x00001130      0x400 data_init

.text.SYS_FS_MEDIA_MANAGER_Tasks%83
                0x00001530      0x3f8
 .text.SYS_FS_MEDIA_MANAGER_Tasks
                0x00001530      0x3f8 build/Artemis_PDU/production/_ext/1111598889/sys_fs_media_manager.o
                0x00001530                SYS_FS_MEDIA_MANAGER_Tasks

.text.follow_path%84
                0x00001928      0x3ac
 .text.follow_path
                0x00001928      0x3ac build/Artemis_PDU/production/_ext/401857885/ff.o

.text.mount_volume%85
                0x00001cd4      0x398
 .text.mount_volume
                0x00001cd4      0x398 build/Artemis_PDU/production/_ext/401857885/ff.o

.text._DRV_SDSPI_SetupXfer%86
                0x0000206c      0x338
 .text._DRV_SDSPI_SetupXfer
                0x0000206c      0x338 build/Artemis_PDU/production/_ext/1760076532/drv_sdspi.o

.text.f_printf%87
                0x000023a4      0x320
 .text.f_printf
                0x000023a4      0x320 build/Artemis_PDU/production/_ext/401857885/ff.o
                0x000023a4                f_printf

.text%88        0x000026c4      0x2d0
 .text          0x000026c4      0x2d0 c:/program files/microchip/xc32/v4.00/bin/bin/../../lib/gcc/pic32c/8.3.1/thumb/v7e-m+fp/hard\libgcc.a(_udivmoddi4.o)
                0x000026c4                __udivmoddi4

.text.dir_register%89
                0x00002994      0x2b8
 .text.dir_register
                0x00002994      0x2b8 build/Artemis_PDU/production/_ext/401857885/ff.o

.text.f_open%90
                0x00002c4c      0x244
 .text.f_open   0x00002c4c      0x244 build/Artemis_PDU/production/_ext/401857885/ff.o
                0x00002c4c                f_open

.rodata.cvt1.8193%91
                0x00002e90      0x1f4
 .rodata.cvt1.8193
                0x00002e90      0x1f4 build/Artemis_PDU/production/_ext/401857885/ffunicode.o

.text.xTaskCreate%92
                0x00003084      0x1e4
 .text.xTaskCreate
                0x00003084      0x1e4 build/Artemis_PDU/production/_ext/404212886/FreeRTOS_tasks.o
                0x00003084                xTaskCreate

.text.dir_find%93
                0x00003268      0x1d8
 .text.dir_find
                0x00003268      0x1d8 build/Artemis_PDU/production/_ext/401857885/ff.o

.text.f_write%94
                0x00003440      0x1c6
 .text.f_write  0x00003440      0x1c6 build/Artemis_PDU/production/_ext/401857885/ff.o
                0x00003440                f_write

.text.read_CMD%95
                0x00003608      0x1c0
 .text.read_CMD
                0x00003608      0x1c0 build/Artemis_PDU/production/_ext/1360937237/app.o
                0x00003608                read_CMD

.text.f_read%96
                0x000037c8      0x198
 .text.f_read   0x000037c8      0x198 build/Artemis_PDU/production/_ext/401857885/ff.o
                0x000037c8                f_read

.text.f_lseek%97
                0x00003960      0x192
 .text.f_lseek  0x00003960      0x192 build/Artemis_PDU/production/_ext/401857885/ff.o
                0x00003960                f_lseek

.rodata%98      0x00003af4      0x18c
 .rodata        0x00003af4      0x18c build/Artemis_PDU/production/_ext/1360937237/app.o

.text.create_partition%99
                0x00003c80      0x188
 .text.create_partition
                0x00003c80      0x188 build/Artemis_PDU/production/_ext/401857885/ff.o

.text.SYS_FS_MEDIA_MANAGER_SectorWrite%100
                0x00003e08      0x188
 .text.SYS_FS_MEDIA_MANAGER_SectorWrite
                0x00003e08      0x188 build/Artemis_PDU/production/_ext/1111598889/sys_fs_media_manager.o
                0x00003e08                SYS_FS_MEDIA_MANAGER_SectorWrite

.text.f_setlabel%101
                0x00003f90      0x17c
 .text.f_setlabel
                0x00003f90      0x17c build/Artemis_PDU/production/_ext/401857885/ff.o
                0x00003f90                f_setlabel

.text.SERCOM2_SPI_InterruptHandler%102
                0x0000410c      0x170
 .text.SERCOM2_SPI_InterruptHandler
                0x0000410c      0x170 build/Artemis_PDU/production/_ext/796654533/plib_sercom2_spi_master.o
                0x0000410c                SERCOM2_SPI_InterruptHandler

.text._DRV_SDSPI_CommandSend%103
                0x0000427c      0x164
 .text._DRV_SDSPI_CommandSend
                0x0000427c      0x164 build/Artemis_PDU/production/_ext/1760076532/drv_sdspi.o

.text.get_fileinfo%104
                0x000043e0      0x164
 .text.get_fileinfo
                0x000043e0      0x164 build/Artemis_PDU/production/_ext/401857885/ff.o

.text.xQueueSemaphoreTake%105
                0x00004544      0x154
 .text.xQueueSemaphoreTake
                0x00004544      0x154 build/Artemis_PDU/production/_ext/404212886/queue.o
                0x00004544                xQueueSemaphoreTake

.text.DRV_SPI_WriteReadTransfer%106
                0x00004698      0x14c
 .text.DRV_SPI_WriteReadTransfer
                0x00004698      0x14c build/Artemis_PDU/production/_ext/1471363227/drv_spi.o
                0x00004698                DRV_SPI_WriteReadTransfer

.text.dir_read%107
                0x000047e4      0x138
 .text.dir_read
                0x000047e4      0x138 build/Artemis_PDU/production/_ext/401857885/ff.o

.text.f_getcwd%108
                0x0000491c      0x138
 .text.f_getcwd
                0x0000491c      0x138 build/Artemis_PDU/production/_ext/401857885/ff.o
                0x0000491c                f_getcwd

.text.SERCOM2_SPI_WriteRead%109
                0x00004a54      0x130
 .text.SERCOM2_SPI_WriteRead
                0x00004a54      0x130 build/Artemis_PDU/production/_ext/796654533/plib_sercom2_spi_master.o
                0x00004a54                SERCOM2_SPI_WriteRead

.text.put_fat%110
                0x00004b84      0x12c
 .text.put_fat  0x00004b84      0x12c build/Artemis_PDU/production/_ext/401857885/ff.o

.text.f_rename%111
                0x00004cb0      0x126
 .text.f_rename
                0x00004cb0      0x126 build/Artemis_PDU/production/_ext/401857885/ff.o
                0x00004cb0                f_rename

.text.xQueueGenericSend%112
                0x00004dd8      0x124
 .text.xQueueGenericSend
                0x00004dd8      0x124 build/Artemis_PDU/production/_ext/404212886/queue.o
                0x00004dd8                xQueueGenericSend

.text.create_chain%113
                0x00004efc      0x11e
 .text.create_chain
                0x00004efc      0x11e build/Artemis_PDU/production/_ext/401857885/ff.o

.text.f_mkdir%114
                0x0000501a      0x116
 .text.f_mkdir  0x0000501a      0x116 build/Artemis_PDU/production/_ext/401857885/ff.o
                0x0000501a                f_mkdir

.text.CLOCK_Initialize%115
                0x00005130      0x114
 .text.CLOCK_Initialize
                0x00005130      0x114 build/Artemis_PDU/production/_ext/1650922938/plib_clock.o
                0x00005130                CLOCK_Initialize

.text.xTaskIncrementTick%116
                0x00005244      0x114
 .text.xTaskIncrementTick
                0x00005244      0x114 build/Artemis_PDU/production/_ext/404212886/FreeRTOS_tasks.o
                0x00005244                xTaskIncrementTick

.rodata.uc437%117
                0x00005358      0x100
 .rodata.uc437  0x00005358      0x100 build/Artemis_PDU/production/_ext/401857885/ffunicode.o

.text.DRV_SDSPI_Initialize%118
                0x00005458       0xfc
 .text.DRV_SDSPI_Initialize
                0x00005458       0xfc build/Artemis_PDU/production/_ext/1760076532/drv_sdspi.o
                0x00005458                DRV_SDSPI_Initialize

.text.PORT_Initialize%119
                0x00005554       0xf4
 .text.PORT_Initialize
                0x00005554       0xf4 build/Artemis_PDU/production/_ext/1022696631/plib_port.o
                0x00005554                PORT_Initialize

.text.check_fs%120
                0x00005648       0xf0
 .text.check_fs
                0x00005648       0xf0 build/Artemis_PDU/production/_ext/401857885/ff.o

.text.DRV_SPI_Open%121
                0x00005738       0xe8
 .text.DRV_SPI_Open
                0x00005738       0xe8 build/Artemis_PDU/production/_ext/1471363227/drv_spi.o
                0x00005738                DRV_SPI_Open

.text.DRV_SDSPI_Open%122
                0x00005820       0xe4
 .text.DRV_SDSPI_Open
                0x00005820       0xe4 build/Artemis_PDU/production/_ext/1760076532/drv_sdspi.o
                0x00005820                DRV_SDSPI_Open

.text.xTaskResumeAll%123
                0x00005904       0xe4
 .text.xTaskResumeAll
                0x00005904       0xe4 build/Artemis_PDU/production/_ext/404212886/FreeRTOS_tasks.o
                0x00005904                xTaskResumeAll

.text.f_getfree%124
                0x000059e8       0xd8
 .text.f_getfree
                0x000059e8       0xd8 build/Artemis_PDU/production/_ext/401857885/ff.o
                0x000059e8                f_getfree

.text.get_fat%125
                0x00005ac0       0xd0
 .text.get_fat  0x00005ac0       0xd0 build/Artemis_PDU/production/_ext/401857885/ff.o

.text.f_unlink%126
                0x00005b90       0xcc
 .text.f_unlink
                0x00005b90       0xcc build/Artemis_PDU/production/_ext/401857885/ff.o
                0x00005b90                f_unlink

.text.dir_next%127
                0x00005c5c       0xc8
 .text.dir_next
                0x00005c5c       0xc8 build/Artemis_PDU/production/_ext/401857885/ff.o

.text.SYS_TIME_PLIBCallback%128
                0x00005d24       0xc4
 .text.SYS_TIME_PLIBCallback
                0x00005d24       0xc4 build/Artemis_PDU/production/_ext/1304864151/sys_time.o

.text.f_truncate%129
                0x00005de8       0xc2
 .text.f_truncate
                0x00005de8       0xc2 build/Artemis_PDU/production/_ext/401857885/ff.o
                0x00005de8                f_truncate

.rodata.cvt2.8194%130
                0x00005eac       0xbc
 .rodata.cvt2.8194
                0x00005eac       0xbc build/Artemis_PDU/production/_ext/401857885/ffunicode.o

.text.DRV_SPI_Initialize%131
                0x00005f68       0xb4
 .text.DRV_SPI_Initialize
                0x00005f68       0xb4 build/Artemis_PDU/production/_ext/1471363227/drv_spi.o
                0x00005f68                DRV_SPI_Initialize

.text.ff_wtoupper%132
                0x0000601c       0xb4
 .text.ff_wtoupper
                0x0000601c       0xb4 build/Artemis_PDU/production/_ext/401857885/ffunicode.o
                0x0000601c                ff_wtoupper

.text.dir_sdi%133
                0x000060d0       0xb0
 .text.dir_sdi  0x000060d0       0xb0 build/Artemis_PDU/production/_ext/401857885/ff.o

.text.SYS_TIME_TimerObjectCreate%134
                0x00006180       0xb0
 .text.SYS_TIME_TimerObjectCreate
                0x00006180       0xb0 build/Artemis_PDU/production/_ext/1304864151/sys_time.o

.text.vTaskSwitchContext%135
                0x00006230       0xa8
 .text.vTaskSwitchContext
                0x00006230       0xa8 build/Artemis_PDU/production/_ext/404212886/FreeRTOS_tasks.o
                0x00006230                vTaskSwitchContext

.text.xTaskPriorityInherit%136
                0x000062d8       0xa8
 .text.xTaskPriorityInherit
                0x000062d8       0xa8 build/Artemis_PDU/production/_ext/404212886/FreeRTOS_tasks.o
                0x000062d8                xTaskPriorityInherit

.text.enableGPIOs%137
                0x00006380       0xa8
 .text.enableGPIOs
                0x00006380       0xa8 build/Artemis_PDU/production/_ext/1360937237/app.o
                0x00006380                enableGPIOs

.text.disableGPIOs%138
                0x00006428       0xa8
 .text.disableGPIOs
                0x00006428       0xa8 build/Artemis_PDU/production/_ext/1360937237/app.o
                0x00006428                disableGPIOs

.text.f_getlabel%139
                0x000064d0       0xa2
 .text.f_getlabel
                0x000064d0       0xa2 build/Artemis_PDU/production/_ext/401857885/ff.o
                0x000064d0                f_getlabel

.rodata.gDrvSDSPICmdTable%140
                0x00006574       0xa0
 .rodata.gDrvSDSPICmdTable
                0x00006574       0xa0 build/Artemis_PDU/production/_ext/1760076532/drv_sdspi.o

.text.f_sync%141
                0x00006614       0x9c
 .text.f_sync   0x00006614       0x9c build/Artemis_PDU/production/_ext/401857885/ff.o
                0x00006614                f_sync

.text.FATFS_unmount%142
                0x000066b0       0x9c
 .text.FATFS_unmount
                0x000066b0       0x9c build/Artemis_PDU/production/_ext/1111598889/sys_fs_fat_interface.o
                0x000066b0                FATFS_unmount

.text.SERCOM4_I2C_InterruptHandler%143
                0x0000674c       0x98
 .text.SERCOM4_I2C_InterruptHandler
                0x0000674c       0x98 build/Artemis_PDU/production/_ext/835284660/plib_sercom4_i2c_slave.o
                0x0000674c                SERCOM4_I2C_InterruptHandler

.text.SERCOM2_SPI_TransferSetup%144
                0x000067e4       0x98
 .text.SERCOM2_SPI_TransferSetup
                0x000067e4       0x98 build/Artemis_PDU/production/_ext/796654533/plib_sercom2_spi_master.o
                0x000067e4                SERCOM2_SPI_TransferSetup

.text.prvAddCurrentTaskToDelayedList%145
                0x0000687c       0x98
 .text.prvAddCurrentTaskToDelayedList
                0x0000687c       0x98 build/Artemis_PDU/production/_ext/404212886/FreeRTOS_tasks.o

.text.remove_chain%146
                0x00006914       0x94
 .text.remove_chain
                0x00006914       0x94 build/Artemis_PDU/production/_ext/401857885/ff.o

.text._DRV_SDSPI_ReadResponseWithTimeout%147
                0x000069a8       0x92
 .text._DRV_SDSPI_ReadResponseWithTimeout
                0x000069a8       0x92 build/Artemis_PDU/production/_ext/1760076532/drv_sdspi.o

.text.f_opendir%148
                0x00006a3a       0x92
 .text.f_opendir
                0x00006a3a       0x92 build/Artemis_PDU/production/_ext/401857885/ff.o
                0x00006a3a                f_opendir

.text.Reset_Handler%149
                0x00006acc       0x90
 .text.Reset_Handler
                0x00006acc       0x90 build/Artemis_PDU/production/_ext/974488028/startup_xc32.o
                0x00006acc                Reset_Handler

.text.sync_fs%150
                0x00006b5c       0x8c
 .text.sync_fs  0x00006b5c       0x8c build/Artemis_PDU/production/_ext/401857885/ff.o

.rodata.FatFsFunctions%151
                0x00006be8       0x88
 .rodata.FatFsFunctions
                0x00006be8       0x88 build/Artemis_PDU/production/_ext/974488028/initialization.o
                0x00006be8                FatFsFunctions

.text.__pic32c_data_initialization%152
                0x00006c70       0x88
 .text.__pic32c_data_initialization
                0x00006c70       0x88 c:/program files/microchip/xc32/v4.00/bin/bin/../../lib/gcc/pic32c/8.3.1/../../../../pic32c/lib/thumb/v7e-m+fp/hard\libpic32c.a(data_init.o)
                0x00006c70                __pic32c_data_initialization

.text.DRV_SPI_Lock%153
                0x00006cf8       0x84
 .text.DRV_SPI_Lock
                0x00006cf8       0x84 build/Artemis_PDU/production/_ext/1471363227/drv_spi.o
                0x00006cf8                DRV_SPI_Lock

.text.NVIC_Initialize%154
                0x00006d7c       0x84
 .text.NVIC_Initialize
                0x00006d7c       0x84 build/Artemis_PDU/production/_ext/1022749782/plib_nvic.o
                0x00006d7c                NVIC_Initialize

.text.SYS_TIME_AddToList%155
                0x00006e00       0x84
 .text.SYS_TIME_AddToList
                0x00006e00       0x84 build/Artemis_PDU/production/_ext/1304864151/sys_time.o

.rodata.ExCvt%156
                0x00006e84       0x80
 .rodata.ExCvt  0x00006e84       0x80 build/Artemis_PDU/production/_ext/401857885/ff.o

.text.xTaskPriorityDisinherit%157
                0x00006f04       0x80
 .text.xTaskPriorityDisinherit
                0x00006f04       0x80 build/Artemis_PDU/production/_ext/404212886/FreeRTOS_tasks.o
                0x00006f04                xTaskPriorityDisinherit

.text.vTaskPriorityDisinheritAfterTimeout%158
                0x00006f84       0x80
 .text.vTaskPriorityDisinheritAfterTimeout
                0x00006f84       0x80 build/Artemis_PDU/production/_ext/404212886/FreeRTOS_tasks.o
                0x00006f84                vTaskPriorityDisinheritAfterTimeout

.text.DRV_SPI_TransferSetup%159
                0x00007004       0x7e
 .text.DRV_SPI_TransferSetup
                0x00007004       0x7e build/Artemis_PDU/production/_ext/1471363227/drv_spi.o
                0x00007004                DRV_SPI_TransferSetup

.text.prvUnlockQueue%160
                0x00007082       0x7e
 .text.prvUnlockQueue
                0x00007082       0x7e build/Artemis_PDU/production/_ext/404212886/queue.o

.text.FATFS_mount%161
                0x00007100       0x7c
 .text.FATFS_mount
                0x00007100       0x7c build/Artemis_PDU/production/_ext/1111598889/sys_fs_fat_interface.o
                0x00007100                FATFS_mount

.text.FATFS_APP%162
                0x0000717c       0x7c
 .text.FATFS_APP
                0x0000717c       0x7c build/Artemis_PDU/production/_ext/1360937237/app.o
                0x0000717c                FATFS_APP

.text.prvCopyDataToQueue%163
                0x000071f8       0x76
 .text.prvCopyDataToQueue
                0x000071f8       0x76 build/Artemis_PDU/production/_ext/404212886/queue.o

.text.inc_lock%164
                0x00007270       0x74
 .text.inc_lock
                0x00007270       0x74 build/Artemis_PDU/production/_ext/401857885/ff.o

.text.xTaskRemoveFromEventList%165
                0x000072e4       0x74
 .text.xTaskRemoveFromEventList
                0x000072e4       0x74 build/Artemis_PDU/production/_ext/404212886/FreeRTOS_tasks.o
                0x000072e4                xTaskRemoveFromEventList

.text.SYS_FS_Initialize%166
                0x00007358       0x70
 .text.SYS_FS_Initialize
                0x00007358       0x70 build/Artemis_PDU/production/_ext/1111598889/sys_fs.o
                0x00007358                SYS_FS_Initialize

.text.SYS_TIME_Initialize%167
                0x000073c8       0x70
 .text.SYS_TIME_Initialize
                0x000073c8       0x70 build/Artemis_PDU/production/_ext/1304864151/sys_time.o
                0x000073c8                SYS_TIME_Initialize

.text.xQueueGenericReset%168
                0x00007438       0x70
 .text.xQueueGenericReset
                0x00007438       0x70 build/Artemis_PDU/production/_ext/404212886/queue.o
                0x00007438                xQueueGenericReset

.text.prvIdleTask%169
                0x000074a8       0x70
 .text.prvIdleTask
                0x000074a8       0x70 build/Artemis_PDU/production/_ext/404212886/FreeRTOS_tasks.o

.text.pvPortMalloc%170
                0x00007518       0x6c
 .text.pvPortMalloc
                0x00007518       0x6c build/Artemis_PDU/production/_ext/1665200909/heap_1.o
                0x00007518                pvPortMalloc

.text.SYS_Initialize%171
                0x00007584       0x68
 .text.SYS_Initialize
                0x00007584       0x68 build/Artemis_PDU/production/_ext/974488028/initialization.o
                0x00007584                SYS_Initialize

.text.f_mount%172
                0x000075ec       0x64
 .text.f_mount  0x000075ec       0x64 build/Artemis_PDU/production/_ext/401857885/ff.o
                0x000075ec                f_mount

.text.SYS_Tasks%173
                0x00007650       0x64
 .text.SYS_Tasks
                0x00007650       0x64 build/Artemis_PDU/production/_ext/974488028/tasks.o
                0x00007650                SYS_Tasks

.text.xPortPendSVHandler%174
                0x000076c0       0x64
 .text.xPortPendSVHandler
                0x000076c0       0x64 build/Artemis_PDU/production/_ext/246609638/port.o
                0x000076c0                xPortPendSVHandler

.text.xQueueGiveFromISR%175
                0x00007724       0x64
 .text.xQueueGiveFromISR
                0x00007724       0x64 build/Artemis_PDU/production/_ext/404212886/queue.o
                0x00007724                xQueueGiveFromISR

.text.vTaskStartScheduler%176
                0x00007788       0x64
 .text.vTaskStartScheduler
                0x00007788       0x64 build/Artemis_PDU/production/_ext/404212886/FreeRTOS_tasks.o
                0x00007788                vTaskStartScheduler

.text.USART_READ%177
                0x000077ec       0x64
 .text.USART_READ
                0x000077ec       0x64 build/Artemis_PDU/production/_ext/1360937237/app.o
                0x000077ec                USART_READ

.text.f_chdir%178
                0x00007850       0x60
 .text.f_chdir  0x00007850       0x60 build/Artemis_PDU/production/_ext/401857885/ff.o
                0x00007850                f_chdir

.text.f_chmod%179
                0x000078b0       0x5e
 .text.f_chmod  0x000078b0       0x5e build/Artemis_PDU/production/_ext/401857885/ff.o
                0x000078b0                f_chmod

.text.SERCOM4_I2C_Initialize%180
                0x00007910       0x5c
 .text.SERCOM4_I2C_Initialize
                0x00007910       0x5c build/Artemis_PDU/production/_ext/835284660/plib_sercom4_i2c_slave.o
                0x00007910                SERCOM4_I2C_Initialize

.text.chk_lock%181
                0x0000796c       0x5c
 .text.chk_lock
                0x0000796c       0x5c build/Artemis_PDU/production/_ext/401857885/ff.o

.text.get_ldnumber%182
                0x000079c8       0x5c
 .text.get_ldnumber
                0x000079c8       0x5c build/Artemis_PDU/production/_ext/401857885/ff.o

.text.dir_clear%183
                0x00007a24       0x5c
 .text.dir_clear
                0x00007a24       0x5c build/Artemis_PDU/production/_ext/401857885/ff.o

.text.dir_remove%184
                0x00007a80       0x5c
 .text.dir_remove
                0x00007a80       0x5c build/Artemis_PDU/production/_ext/401857885/ff.o

.text.f_utime%185
                0x00007adc       0x5c
 .text.f_utime  0x00007adc       0x5c build/Artemis_PDU/production/_ext/401857885/ff.o
                0x00007adc                f_utime

.text.FATFS_open%186
                0x00007b38       0x5c
 .text.FATFS_open
                0x00007b38       0x5c build/Artemis_PDU/production/_ext/1111598889/sys_fs_fat_interface.o
                0x00007b38                FATFS_open

.text.xTaskCheckForTimeOut%187
                0x00007b94       0x5c
 .text.xTaskCheckForTimeOut
                0x00007b94       0x5c build/Artemis_PDU/production/_ext/404212886/FreeRTOS_tasks.o
                0x00007b94                xTaskCheckForTimeOut

.text.__libc_start_init%188
                0x00007bf0       0x5c
 .text.__libc_start_init
                0x00007bf0       0x5c c:/program files/microchip/xc32/v4.00/bin/bin/../../lib/gcc/pic32c/8.3.1/../../../../pic32c/lib/thumb/v7e-m+fp/hard\libc-musl.a(__libc_start_main.o)
                0x00007bf0                __libc_init_array

.text.f_gets%189
                0x00007c4c       0x5a
 .text.f_gets   0x00007c4c       0x5a build/Artemis_PDU/production/_ext/401857885/ff.o
                0x00007c4c                f_gets

.text._DRV_SPI_PlibCallbackHandler%190
                0x00007ca6       0x58
 .text._DRV_SPI_PlibCallbackHandler
                0x00007ca6       0x58 build/Artemis_PDU/production/_ext/1471363227/drv_spi.o

.text.OSAL_SEM_Create%191
                0x00007cfe       0x58
 .text.OSAL_SEM_Create
                0x00007cfe       0x58 build/Artemis_PDU/production/_ext/1624425958/osal_freertos.o
                0x00007cfe                OSAL_SEM_Create

.text.SERCOM3_USART_Read%192
                0x00007d58       0x58
 .text.SERCOM3_USART_Read
                0x00007d58       0x58 build/Artemis_PDU/production/_ext/1679430495/plib_sercom3_usart.o
                0x00007d58                SERCOM3_USART_Read

.text.dir_alloc%193
                0x00007db0       0x54
 .text.dir_alloc
                0x00007db0       0x54 build/Artemis_PDU/production/_ext/401857885/ff.o

.rodata%194     0x00007e04       0x54
 .rodata        0x00007e04       0x54 build/Artemis_PDU/production/_ext/401857885/ff.o

.text.SYS_FS_MEDIA_MANAGER_SectorRead%195
                0x00007e58       0x54
 .text.SYS_FS_MEDIA_MANAGER_SectorRead
                0x00007e58       0x54 build/Artemis_PDU/production/_ext/1111598889/sys_fs_media_manager.o
                0x00007e58                SYS_FS_MEDIA_MANAGER_SectorRead

.text.SYS_TIME_CallbackRegisterMS%196
                0x00007eac       0x54
 .text.SYS_TIME_CallbackRegisterMS
                0x00007eac       0x54 build/Artemis_PDU/production/_ext/1304864151/sys_time.o
                0x00007eac                SYS_TIME_CallbackRegisterMS

.text.SYS_TIME_RemoveFromList%197
                0x00007f00       0x50
 .text.SYS_TIME_RemoveFromList
                0x00007f00       0x50 build/Artemis_PDU/production/_ext/1304864151/sys_time.o

.text.f_readdir%198
                0x00007f50       0x4e
 .text.f_readdir
                0x00007f50       0x4e build/Artemis_PDU/production/_ext/401857885/ff.o
                0x00007f50                f_readdir

.text.DRV_SDSPI_Close%199
                0x00007fa0       0x4c
 .text.DRV_SDSPI_Close
                0x00007fa0       0x4c build/Artemis_PDU/production/_ext/1760076532/drv_sdspi.o
                0x00007fa0                DRV_SDSPI_Close

.text._DRV_SPI_DriverHandleValidate%200
                0x00007fec       0x4c
 .text._DRV_SPI_DriverHandleValidate
                0x00007fec       0x4c build/Artemis_PDU/production/_ext/1471363227/drv_spi.o

.text._DRV_SDSPI_DriverHandleValidate%201
                0x00008038       0x48
 .text._DRV_SDSPI_DriverHandleValidate
                0x00008038       0x48 build/Artemis_PDU/production/_ext/1760076532/drv_sdspi.o

.text.SERCOM3_USART_Write%202
                0x00008080       0x48
 .text.SERCOM3_USART_Write
                0x00008080       0x48 build/Artemis_PDU/production/_ext/1679430495/plib_sercom3_usart.o
                0x00008080                SERCOM3_USART_Write

.text.sync_window%203
                0x000080c8       0x48
 .text.sync_window
                0x000080c8       0x48 build/Artemis_PDU/production/_ext/401857885/ff.o

.text.ff_uni2oem%204
                0x00008110       0x48
 .text.ff_uni2oem
                0x00008110       0x48 build/Artemis_PDU/production/_ext/401857885/ffunicode.o
                0x00008110                ff_uni2oem

.text.xPortStartScheduler%205
                0x00008158       0x48
 .text.xPortStartScheduler
                0x00008158       0x48 build/Artemis_PDU/production/_ext/246609638/port.o
                0x00008158                xPortStartScheduler

.text.validate%206
                0x000081a0       0x46
 .text.validate
                0x000081a0       0x46 build/Artemis_PDU/production/_ext/401857885/ff.o

.text.RTC_Initialize%207
                0x000081e8       0x44
 .text.RTC_Initialize
                0x000081e8       0x44 build/Artemis_PDU/production/_ext/659748505/plib_rtc_timer.o
                0x000081e8                RTC_Initialize

.text.f_stat%208
                0x0000822c       0x44
 .text.f_stat   0x0000822c       0x44 build/Artemis_PDU/production/_ext/401857885/ff.o
                0x0000822c                f_stat

.text.SYS_INT_SourceDisable%209
                0x00008270       0x44
 .text.SYS_INT_SourceDisable
                0x00008270       0x44 build/Artemis_PDU/production/_ext/1813730513/sys_int.o
                0x00008270                SYS_INT_SourceDisable

.text.SYS_TIME_TimerStart%210
                0x000082b4       0x44
 .text.SYS_TIME_TimerStart
                0x000082b4       0x44 build/Artemis_PDU/production/_ext/1304864151/sys_time.o
                0x000082b4                SYS_TIME_TimerStart

.text%211       0x000082f8       0x40
 .text          0x000082f8       0x40 c:/program files/microchip/xc32/v4.00/bin/bin/../../lib/gcc/pic32c/8.3.1/thumb/v7e-m+fp/hard/crtbegin.o

.text.disk_checkCommandStatus%212
                0x00008338       0x40
 .text.disk_checkCommandStatus
                0x00008338       0x40 build/Artemis_PDU/production/_ext/867183764/diskio.o

.text.SYS_FS_MEDIA_MANAGER_Register%213
                0x00008378       0x40
 .text.SYS_FS_MEDIA_MANAGER_Register
                0x00008378       0x40 build/Artemis_PDU/production/_ext/1111598889/sys_fs_media_manager.o
                0x00008378                SYS_FS_MEDIA_MANAGER_Register

.text.putc_bfd%214
                0x000083b8       0x3e
 .text.putc_bfd
                0x000083b8       0x3e build/Artemis_PDU/production/_ext/401857885/ff.o

.text.FATFS_getclusters%215
                0x000083f6       0x3e
 .text.FATFS_getclusters
                0x000083f6       0x3e build/Artemis_PDU/production/_ext/1111598889/sys_fs_fat_interface.o
                0x000083f6                FATFS_getclusters

.text.OSAL_SEM_PostISR%216
                0x00008434       0x3c
 .text.OSAL_SEM_PostISR
                0x00008434       0x3c build/Artemis_PDU/production/_ext/1624425958/osal_freertos.o
                0x00008434                OSAL_SEM_PostISR

.text.SERCOM2_SPI_Initialize%217
                0x00008470       0x3c
 .text.SERCOM2_SPI_Initialize
                0x00008470       0x3c build/Artemis_PDU/production/_ext/796654533/plib_sercom2_spi_master.o
                0x00008470                SERCOM2_SPI_Initialize

.text.move_window%218
                0x000084ac       0x3c
 .text.move_window
                0x000084ac       0x3c build/Artemis_PDU/production/_ext/401857885/ff.o

.text.SYS_TIME_GetTimerObject%219
                0x000084e8       0x3c
 .text.SYS_TIME_GetTimerObject
                0x000084e8       0x3c build/Artemis_PDU/production/_ext/1304864151/sys_time.o

.text.SYS_TIME_ResourceUnlock%220
                0x00008524       0x3c
 .text.SYS_TIME_ResourceUnlock
                0x00008524       0x3c build/Artemis_PDU/production/_ext/1304864151/sys_time.o

.text.SYS_TIME_TimerDestroy%221
                0x00008560       0x3c
 .text.SYS_TIME_TimerDestroy
                0x00008560       0x3c build/Artemis_PDU/production/_ext/1304864151/sys_time.o
                0x00008560                SYS_TIME_TimerDestroy

.text.putc_flush%222
                0x0000859c       0x3a
 .text.putc_flush
                0x0000859c       0x3a build/Artemis_PDU/production/_ext/401857885/ff.o

.text.disk_ioctl%223
                0x000085d6       0x3a
 .text.disk_ioctl
                0x000085d6       0x3a build/Artemis_PDU/production/_ext/867183764/diskio.o
                0x000085d6                disk_ioctl

.text.DRV_SDSPI_CommandStatusGet%224
                0x00008610       0x34
 .text.DRV_SDSPI_CommandStatusGet
                0x00008610       0x34 build/Artemis_PDU/production/_ext/1760076532/drv_sdspi.o
                0x00008610                DRV_SDSPI_CommandStatusGet

.text._DRV_SDSPI_SPIWriteWithChipSelectDisabled%225
                0x00008644       0x34
 .text._DRV_SDSPI_SPIWriteWithChipSelectDisabled
                0x00008644       0x34 build/Artemis_PDU/production/_ext/1760076532/drv_sdspi_driver_interface.o
                0x00008644                _DRV_SDSPI_SPIWriteWithChipSelectDisabled

.text.SERCOM3_USART_Initialize%226
                0x00008678       0x34
 .text.SERCOM3_USART_Initialize
                0x00008678       0x34 build/Artemis_PDU/production/_ext/1679430495/plib_sercom3_usart.o
                0x00008678                SERCOM3_USART_Initialize

.text.dec_lock%227
                0x000086ac       0x34
 .text.dec_lock
                0x000086ac       0x34 build/Artemis_PDU/production/_ext/401857885/ff.o

.text.f_close%228
                0x000086e0       0x34
 .text.f_close  0x000086e0       0x34 build/Artemis_PDU/production/_ext/401857885/ff.o
                0x000086e0                f_close

.text.f_fdisk%229
                0x00008714       0x34
 .text.f_fdisk  0x00008714       0x34 build/Artemis_PDU/production/_ext/401857885/ff.o
                0x00008714                f_fdisk

.text.SYS_TIME_ResourceLock%230
                0x00008748       0x34
 .text.SYS_TIME_ResourceLock
                0x00008748       0x34 build/Artemis_PDU/production/_ext/1304864151/sys_time.o

.text.vListInsert%231
                0x0000877c       0x34
 .text.vListInsert
                0x0000877c       0x34 build/Artemis_PDU/production/_ext/404212886/list.o
                0x0000877c                vListInsert

.text.vTaskDelay%232
                0x000087b0       0x34
 .text.vTaskDelay
                0x000087b0       0x34 build/Artemis_PDU/production/_ext/404212886/FreeRTOS_tasks.o
                0x000087b0                vTaskDelay

.rodata.sdspiMediaFunctions%233
                0x000087e4       0x30
 .rodata.sdspiMediaFunctions
                0x000087e4       0x30 build/Artemis_PDU/production/_ext/1760076532/drv_sdspi_file_system.o
                0x000087e4                sdspiMediaFunctions

.text.SERCOM3_USART_ErrorClear%234
                0x00008814       0x30
 .text.SERCOM3_USART_ErrorClear
                0x00008814       0x30 build/Artemis_PDU/production/_ext/1679430495/plib_sercom3_usart.o

.text.f_puts%235
                0x00008844       0x30
 .text.f_puts   0x00008844       0x30 build/Artemis_PDU/production/_ext/401857885/ff.o
                0x00008844                f_puts

.text.disk_write%236
                0x00008874       0x30
 .text.disk_write
                0x00008874       0x30 build/Artemis_PDU/production/_ext/867183764/diskio.o
                0x00008874                disk_write

.text.SYS_FS_MEDIA_MANAGER_EventHandler%237
                0x000088a4       0x30
 .text.SYS_FS_MEDIA_MANAGER_EventHandler
                0x000088a4       0x30 build/Artemis_PDU/production/_ext/1111598889/sys_fs_media_manager.o
                0x000088a4                SYS_FS_MEDIA_MANAGER_EventHandler

.text.xQueueGenericCreate%238
                0x000088d4       0x30
 .text.xQueueGenericCreate
                0x000088d4       0x30 build/Artemis_PDU/production/_ext/404212886/queue.o
                0x000088d4                xQueueGenericCreate

.text%239       0x00008904       0x30
 .text          0x00008904       0x30 c:/program files/microchip/xc32/v4.00/bin/bin/../../lib/gcc/pic32c/8.3.1/thumb/v7e-m+fp/hard\libgcc.a(_aeabi_uldivmod.o)
                0x00008904                __aeabi_uldivmod

.text.strstr%240
                0x00008934       0x2e
 .text.strstr   0x00008934       0x2e c:/program files/microchip/xc32/v4.00/bin/bin/../../lib/gcc/pic32c/8.3.1/../../../../pic32c/lib/thumb/v7e-m+fp/hard\libc-musl.a(strstr.o)
                0x00008934                strstr

.text.ff_oem2uni%241
                0x00008964       0x2c
 .text.ff_oem2uni
                0x00008964       0x2c build/Artemis_PDU/production/_ext/401857885/ffunicode.o
                0x00008964                ff_oem2uni

.text.disk_read%242
                0x00008990       0x2c
 .text.disk_read
                0x00008990       0x2c build/Artemis_PDU/production/_ext/867183764/diskio.o
                0x00008990                disk_read

.text.FATFS_opendir%243
                0x000089bc       0x2c
 .text.FATFS_opendir
                0x000089bc       0x2c build/Artemis_PDU/production/_ext/1111598889/sys_fs_fat_interface.o
                0x000089bc                FATFS_opendir

.rodata%244     0x000089e8       0x2c
 .rodata        0x000089e8       0x2c build/Artemis_PDU/production/_ext/974488028/tasks.o

.text.pxPortInitialiseStack%245
                0x00008a14       0x2c
 .text.pxPortInitialiseStack
                0x00008a14       0x2c build/Artemis_PDU/production/_ext/246609638/port.o
                0x00008a14                pxPortInitialiseStack

.text.xPortSysTickHandler%246
                0x00008a40       0x2c
 .text.xPortSysTickHandler
                0x00008a40       0x2c build/Artemis_PDU/production/_ext/246609638/port.o
                0x00008a40                xPortSysTickHandler

.text.prvResetNextTaskUnblockTime%247
                0x00008a6c       0x2c
 .text.prvResetNextTaskUnblockTime
                0x00008a6c       0x2c build/Artemis_PDU/production/_ext/404212886/FreeRTOS_tasks.o

.text.f_closedir%248
                0x00008a98       0x2a
 .text.f_closedir
                0x00008a98       0x2a build/Artemis_PDU/production/_ext/401857885/ff.o
                0x00008a98                f_closedir

.text.DRV_SDSPI_IsAttached%249
                0x00008ac4       0x28
 .text.DRV_SDSPI_IsAttached
                0x00008ac4       0x28 build/Artemis_PDU/production/_ext/1760076532/drv_sdspi.o
                0x00008ac4                DRV_SDSPI_IsAttached

.text.RTC_InterruptHandler%250
                0x00008aec       0x28
 .text.RTC_InterruptHandler
                0x00008aec       0x28 build/Artemis_PDU/production/_ext/659748505/plib_rtc_timer.o
                0x00008aec                RTC_InterruptHandler

.text.tchar2uni%251
                0x00008b14       0x28
 .text.tchar2uni
                0x00008b14       0x28 build/Artemis_PDU/production/_ext/401857885/ff.o

.text.FATFS_mkfs%252
                0x00008b3c       0x28
 .text.FATFS_mkfs
                0x00008b3c       0x28 build/Artemis_PDU/production/_ext/1111598889/sys_fs_fat_interface.o
                0x00008b3c                FATFS_mkfs

.rodata.drvSPI0remapDataBits%253
                0x00008b64       0x28
 .rodata.drvSPI0remapDataBits
                0x00008b64       0x28 build/Artemis_PDU/production/_ext/974488028/initialization.o
                0x00008b64                drvSPI0remapDataBits

.text.prvPortStartFirstTask%254
                0x00008b8c       0x28
 .text.prvPortStartFirstTask
                0x00008b8c       0x28 build/Artemis_PDU/production/_ext/246609638/port.o

.text.vPortSetupTimerInterrupt%255
                0x00008bb4       0x28
 .text.vPortSetupTimerInterrupt
                0x00008bb4       0x28 build/Artemis_PDU/production/_ext/246609638/port.o
                0x00008bb4                vPortSetupTimerInterrupt

.text._DRV_SDSPI_SPISpeedSetup%256
                0x00008bdc       0x26
 .text._DRV_SDSPI_SPISpeedSetup
                0x00008bdc       0x26 build/Artemis_PDU/production/_ext/1760076532/drv_sdspi_driver_interface.o
                0x00008bdc                _DRV_SDSPI_SPISpeedSetup

.text.f_putc%257
                0x00008c02       0x26
 .text.f_putc   0x00008c02       0x26 build/Artemis_PDU/production/_ext/401857885/ff.o
                0x00008c02                f_putc

.text.get_fattime%258
                0x00008c28       0x26
 .text.get_fattime
                0x00008c28       0x26 build/Artemis_PDU/production/_ext/867183764/diskio.o
                0x00008c28                get_fattime

.text._DRV_SDSPI_CardDetectPollingTimerStart%259
                0x00008c50       0x24
 .text._DRV_SDSPI_CardDetectPollingTimerStart
                0x00008c50       0x24 build/Artemis_PDU/production/_ext/1760076532/drv_sdspi_driver_interface.o
                0x00008c50                _DRV_SDSPI_CardDetectPollingTimerStart

.text._DRV_SDSPI_CmdResponseTimerStart%260
                0x00008c74       0x24
 .text._DRV_SDSPI_CmdResponseTimerStart
                0x00008c74       0x24 build/Artemis_PDU/production/_ext/1760076532/drv_sdspi_driver_interface.o
                0x00008c74                _DRV_SDSPI_CmdResponseTimerStart

.text._DRV_SDSPI_TimerStart%261
                0x00008c98       0x24
 .text._DRV_SDSPI_TimerStart
                0x00008c98       0x24 build/Artemis_PDU/production/_ext/1760076532/drv_sdspi_driver_interface.o
                0x00008c98                _DRV_SDSPI_TimerStart

.text.f_chdrive%262
                0x00008cbc       0x24
 .text.f_chdrive
                0x00008cbc       0x24 build/Artemis_PDU/production/_ext/401857885/ff.o
                0x00008cbc                f_chdrive

.text.vPortSVCHandler%263
                0x00008ce0       0x24
 .text.vPortSVCHandler
                0x00008ce0       0x24 build/Artemis_PDU/production/_ext/246609638/port.o
                0x00008ce0                vPortSVCHandler

.text.uxListRemove%264
                0x00008d04       0x24
 .text.uxListRemove
                0x00008d04       0x24 build/Artemis_PDU/production/_ext/404212886/list.o
                0x00008d04                uxListRemove

.text.xQueueCreateMutex%265
                0x00008d28       0x24
 .text.xQueueCreateMutex
                0x00008d28       0x24 build/Artemis_PDU/production/_ext/404212886/queue.o
                0x00008d28                xQueueCreateMutex

.text.SYS_FS_MEDIA_MANAGER_IsFSFat%266
                0x00008d4c       0x22
 .text.SYS_FS_MEDIA_MANAGER_IsFSFat
                0x00008d4c       0x22 build/Artemis_PDU/production/_ext/1111598889/sys_fs_media_manager.o

.text.FATFS_chdrive%267
                0x00008d6e       0x22
 .text.FATFS_chdrive
                0x00008d6e       0x22 build/Artemis_PDU/production/_ext/1111598889/sys_fs_fat_interface.o
                0x00008d6e                FATFS_chdrive

.text.DRV_SDSPI_GeometryGet%268
                0x00008d90       0x20
 .text.DRV_SDSPI_GeometryGet
                0x00008d90       0x20 build/Artemis_PDU/production/_ext/1760076532/drv_sdspi.o
                0x00008d90                DRV_SDSPI_GeometryGet

.text.ld_clust%269
                0x00008db0       0x20
 .text.ld_clust
                0x00008db0       0x20 build/Artemis_PDU/production/_ext/401857885/ff.o

.text.diskEventHandler%270
                0x00008dd0       0x20
 .text.diskEventHandler
                0x00008dd0       0x20 build/Artemis_PDU/production/_ext/867183764/diskio.o
                0x00008dd0                diskEventHandler

.text.SYS_FS_MEDIA_MANAGER_TransferTask%271
                0x00008df0       0x20
 .text.SYS_FS_MEDIA_MANAGER_TransferTask
                0x00008df0       0x20 build/Artemis_PDU/production/_ext/1111598889/sys_fs_media_manager.o
                0x00008df0                SYS_FS_MEDIA_MANAGER_TransferTask

.rodata%272     0x00008e10       0x20
 .rodata        0x00008e10       0x20 build/Artemis_PDU/production/_ext/1111598889/sys_fs_media_manager.o

.rodata.drvSDSPI0InitData%273
                0x00008e30       0x20
 .rodata.drvSDSPI0InitData
                0x00008e30       0x20 build/Artemis_PDU/production/_ext/974488028/initialization.o
                0x00008e30                drvSDSPI0InitData

.text.prvTaskExitError%274
                0x00008e50       0x20
 .text.prvTaskExitError
                0x00008e50       0x20 build/Artemis_PDU/production/_ext/246609638/port.o

.text.vPortEnterCritical%275
                0x00008e70       0x20
 .text.vPortEnterCritical
                0x00008e70       0x20 build/Artemis_PDU/production/_ext/246609638/port.o
                0x00008e70                vPortEnterCritical

.text.OSAL_SEM_Pend%276
                0x00008e90       0x1e
 .text.OSAL_SEM_Pend
                0x00008e90       0x1e build/Artemis_PDU/production/_ext/1624425958/osal_freertos.o
                0x00008e90                OSAL_SEM_Pend

.text.OSAL_MUTEX_Lock%277
                0x00008eae       0x1e
 .text.OSAL_MUTEX_Lock
                0x00008eae       0x1e build/Artemis_PDU/production/_ext/1624425958/osal_freertos.o
                0x00008eae                OSAL_MUTEX_Lock

.text.sum_sfn%278
                0x00008ecc       0x1e
 .text.sum_sfn  0x00008ecc       0x1e build/Artemis_PDU/production/_ext/401857885/ff.o

.text.FATFS_close%279
                0x00008eea       0x1e
 .text.FATFS_close
                0x00008eea       0x1e build/Artemis_PDU/production/_ext/1111598889/sys_fs_fat_interface.o
                0x00008eea                FATFS_close

.text.FATFS_closedir%280
                0x00008f08       0x1e
 .text.FATFS_closedir
                0x00008f08       0x1e build/Artemis_PDU/production/_ext/1111598889/sys_fs_fat_interface.o
                0x00008f08                FATFS_closedir

.text._DRV_SDSPI_EnterIdleState%281
                0x00008f26       0x1c
 .text._DRV_SDSPI_EnterIdleState
                0x00008f26       0x1c build/Artemis_PDU/production/_ext/1760076532/drv_sdspi.o

.text.RTC_Timer32Stop%282
                0x00008f44       0x1c
 .text.RTC_Timer32Stop
                0x00008f44       0x1c build/Artemis_PDU/production/_ext/659748505/plib_rtc_timer.o
                0x00008f44                RTC_Timer32Stop

.text.SERCOM3_USART_ErrorGet%283
                0x00008f60       0x1c
 .text.SERCOM3_USART_ErrorGet
                0x00008f60       0x1c build/Artemis_PDU/production/_ext/1679430495/plib_sercom3_usart.o
                0x00008f60                SERCOM3_USART_ErrorGet

.text.SYS_FS_MEDIA_MANAGER_GetMediaGeometry%284
                0x00008f7c       0x1c
 .text.SYS_FS_MEDIA_MANAGER_GetMediaGeometry
                0x00008f7c       0x1c build/Artemis_PDU/production/_ext/1111598889/sys_fs_media_manager.o
                0x00008f7c                SYS_FS_MEDIA_MANAGER_GetMediaGeometry

.text.vTaskPlaceOnEventList%285
                0x00008f98       0x1c
 .text.vTaskPlaceOnEventList
                0x00008f98       0x1c build/Artemis_PDU/production/_ext/404212886/FreeRTOS_tasks.o
                0x00008f98                vTaskPlaceOnEventList

.text.pvTaskIncrementMutexHeldCount%286
                0x00008fb4       0x1c
 .text.pvTaskIncrementMutexHeldCount
                0x00008fb4       0x1c build/Artemis_PDU/production/_ext/404212886/FreeRTOS_tasks.o
                0x00008fb4                pvTaskIncrementMutexHeldCount

.text.memcmp%287
                0x00008fd0       0x1c
 .text.memcmp   0x00008fd0       0x1c c:/program files/microchip/xc32/v4.00/bin/bin/../../lib/gcc/pic32c/8.3.1/../../../../pic32c/lib/thumb/v7e-m+fp/hard\libc-musl.a(memcmp.o)
                0x00008fd0                memcmp

.text.st_clust%288
                0x00008fec       0x1a
 .text.st_clust
                0x00008fec       0x1a build/Artemis_PDU/production/_ext/401857885/ff.o

.text.FATFS_readdir%289
                0x00009006       0x1a
 .text.FATFS_readdir
                0x00009006       0x1a build/Artemis_PDU/production/_ext/1111598889/sys_fs_fat_interface.o
                0x00009006                FATFS_readdir

.text.OSAL_MUTEX_Create%290
                0x00009020       0x18
 .text.OSAL_MUTEX_Create
                0x00009020       0x18 build/Artemis_PDU/production/_ext/1624425958/osal_freertos.o
                0x00009020                OSAL_MUTEX_Create

.text.OSAL_MUTEX_Unlock%291
                0x00009038       0x18
 .text.OSAL_MUTEX_Unlock
                0x00009038       0x18 build/Artemis_PDU/production/_ext/1624425958/osal_freertos.o
                0x00009038                OSAL_MUTEX_Unlock

.text.RTC_Timer32Start%292
                0x00009050       0x18
 .text.RTC_Timer32Start
                0x00009050       0x18 build/Artemis_PDU/production/_ext/659748505/plib_rtc_timer.o
                0x00009050                RTC_Timer32Start

.text.SERCOM3_USART_WriteByte%293
                0x00009068       0x18
 .text.SERCOM3_USART_WriteByte
                0x00009068       0x18 build/Artemis_PDU/production/_ext/1679430495/plib_sercom3_usart.o
                0x00009068                SERCOM3_USART_WriteByte

.text._SYS_FS_MEDIA_MANAGER_HandleMediaDetach%294
                0x00009080       0x18
 .text._SYS_FS_MEDIA_MANAGER_HandleMediaDetach
                0x00009080       0x18 build/Artemis_PDU/production/_ext/1111598889/sys_fs_media_manager.o

.text.FATFS_stat%295
                0x00009098       0x18
 .text.FATFS_stat
                0x00009098       0x18 build/Artemis_PDU/production/_ext/1111598889/sys_fs_fat_interface.o
                0x00009098                FATFS_stat

.rodata.drvSPI0InitData%296
                0x000090b0       0x18
 .rodata.drvSPI0InitData
                0x000090b0       0x18 build/Artemis_PDU/production/_ext/974488028/initialization.o
                0x000090b0                drvSPI0InitData

.text._DRV_SDSPI_0_Tasks%297
                0x000090c8       0x18
 .text._DRV_SDSPI_0_Tasks
                0x000090c8       0x18 build/Artemis_PDU/production/_ext/974488028/tasks.o
                0x000090c8                _DRV_SDSPI_0_Tasks

.text.vTaskInternalSetTimeOutState%298
                0x000090e0       0x18
 .text.vTaskInternalSetTimeOutState
                0x000090e0       0x18 build/Artemis_PDU/production/_ext/404212886/FreeRTOS_tasks.o
                0x000090e0                vTaskInternalSetTimeOutState

.text.DRV_SDSPI_Read%299
                0x000090f8       0x16
 .text.DRV_SDSPI_Read
                0x000090f8       0x16 build/Artemis_PDU/production/_ext/1760076532/drv_sdspi.o
                0x000090f8                DRV_SDSPI_Read

.text.DRV_SDSPI_Write%300
                0x0000910e       0x16
 .text.DRV_SDSPI_Write
                0x0000910e       0x16 build/Artemis_PDU/production/_ext/1760076532/drv_sdspi.o
                0x0000910e                DRV_SDSPI_Write

.text._DRV_SDSPI_CmdResponseTimerStop%301
                0x00009124       0x16
 .text._DRV_SDSPI_CmdResponseTimerStop
                0x00009124       0x16 build/Artemis_PDU/production/_ext/1760076532/drv_sdspi_driver_interface.o
                0x00009124                _DRV_SDSPI_CmdResponseTimerStop

.text._DRV_SDSPI_TimerStop%302
                0x0000913a       0x16
 .text._DRV_SDSPI_TimerStop
                0x0000913a       0x16 build/Artemis_PDU/production/_ext/1760076532/drv_sdspi_driver_interface.o
                0x0000913a                _DRV_SDSPI_TimerStop

.text.DRV_SPI_ReadTransfer%303
                0x00009150       0x16
 .text.DRV_SPI_ReadTransfer
                0x00009150       0x16 build/Artemis_PDU/production/_ext/1471363227/drv_spi.o
                0x00009150                DRV_SPI_ReadTransfer

.text.ld_dword%304
                0x00009166       0x16
 .text.ld_dword
                0x00009166       0x16 build/Artemis_PDU/production/_ext/401857885/ff.o

.text.clst2sect%305
                0x0000917c       0x16
 .text.clst2sect
                0x0000917c       0x16 build/Artemis_PDU/production/_ext/401857885/ff.o

.text.vListInitialise%306
                0x00009192       0x16
 .text.vListInitialise
                0x00009192       0x16 build/Artemis_PDU/production/_ext/404212886/list.o
                0x00009192                vListInitialise

.text.vListInsertEnd%307
                0x000091a8       0x16
 .text.vListInsertEnd
                0x000091a8       0x16 build/Artemis_PDU/production/_ext/404212886/list.o
                0x000091a8                vListInsertEnd

.text.prvIsQueueEmpty%308
                0x000091be       0x16
 .text.prvIsQueueEmpty
                0x000091be       0x16 build/Artemis_PDU/production/_ext/404212886/queue.o

.text.xQueueCreateCountingSemaphore%309
                0x000091d4       0x16
 .text.xQueueCreateCountingSemaphore
                0x000091d4       0x16 build/Artemis_PDU/production/_ext/404212886/queue.o
                0x000091d4                xQueueCreateCountingSemaphore

.text.memcpy%310
                0x000091ea       0x16
 .text.memcpy   0x000091ea       0x16 c:/program files/microchip/xc32/v4.00/bin/bin/../../lib/gcc/pic32c/8.3.1/../../../../pic32c/lib/thumb/v7e-m+fp/hard\libc-musl.a(memcpy.o)
                0x000091ea                memcpy

.text.DRV_SDSPI_RegisterWithSysFs%311
                0x00009200       0x14
 .text.DRV_SDSPI_RegisterWithSysFs
                0x00009200       0x14 build/Artemis_PDU/production/_ext/1760076532/drv_sdspi_file_system.o
                0x00009200                DRV_SDSPI_RegisterWithSysFs

.text.SERCOM4_I2C_ReadByte%312
                0x00009214       0x14
 .text.SERCOM4_I2C_ReadByte
                0x00009214       0x14 build/Artemis_PDU/production/_ext/835284660/plib_sercom4_i2c_slave.o
                0x00009214                SERCOM4_I2C_ReadByte

.text.SERCOM2_SPI_IsTransmitterBusy%313
                0x00009228       0x14
 .text.SERCOM2_SPI_IsTransmitterBusy
                0x00009228       0x14 build/Artemis_PDU/production/_ext/796654533/plib_sercom2_spi_master.o
                0x00009228                SERCOM2_SPI_IsTransmitterBusy

.text.mem_cpy%314
                0x0000923c       0x14
 .text.mem_cpy  0x0000923c       0x14 build/Artemis_PDU/production/_ext/401857885/ff.o

.rodata.badchr.8899%315
                0x00009250       0x14
 .rodata.badchr.8899
                0x00009250       0x14 build/Artemis_PDU/production/_ext/401857885/ff.o

.rodata.sysTimePlibAPI%316
                0x00009264       0x14
 .rodata.sysTimePlibAPI
                0x00009264       0x14 build/Artemis_PDU/production/_ext/974488028/initialization.o
                0x00009264                sysTimePlibAPI

.text.vPortEnableVFP%317
                0x00009278       0x14
 .text.vPortEnableVFP
                0x00009278       0x14 build/Artemis_PDU/production/_ext/246609638/port.o

.text.vPortExitCritical%318
                0x0000928c       0x14
 .text.vPortExitCritical
                0x0000928c       0x14 build/Artemis_PDU/production/_ext/246609638/port.o
                0x0000928c                vPortExitCritical

.text.APP_Initialize%319
                0x000092a0       0x14
 .text.APP_Initialize
                0x000092a0       0x14 build/Artemis_PDU/production/_ext/1360937237/app.o
                0x000092a0                APP_Initialize

.text.DRV_SDSPI_EventHandlerSet%320
                0x000092b4       0x12
 .text.DRV_SDSPI_EventHandlerSet
                0x000092b4       0x12 build/Artemis_PDU/production/_ext/1760076532/drv_sdspi.o
                0x000092b4                DRV_SDSPI_EventHandlerSet

.text.DRV_SPI_WriteTransfer%321
                0x000092c6       0x12
 .text.DRV_SPI_WriteTransfer
                0x000092c6       0x12 build/Artemis_PDU/production/_ext/1471363227/drv_spi.o
                0x000092c6                DRV_SPI_WriteTransfer

.text.NVIC_INT_Disable%322
                0x000092d8       0x12
 .text.NVIC_INT_Disable
                0x000092d8       0x12 build/Artemis_PDU/production/_ext/1022749782/plib_nvic.o
                0x000092d8                NVIC_INT_Disable

.text.NVIC_INT_Restore%323
                0x000092ea       0x12
 .text.NVIC_INT_Restore
                0x000092ea       0x12 build/Artemis_PDU/production/_ext/1022749782/plib_nvic.o
                0x000092ea                NVIC_INT_Restore

.text.vApplicationStackOverflowHook%324
                0x000092fc       0x12
 .text.vApplicationStackOverflowHook
                0x000092fc       0x12 build/Artemis_PDU/production/_ext/974488028/freertos_hooks.o
                0x000092fc                vApplicationStackOverflowHook

.text.vApplicationMallocFailedHook%325
                0x0000930e       0x12
 .text.vApplicationMallocFailedHook
                0x0000930e       0x12 build/Artemis_PDU/production/_ext/974488028/freertos_hooks.o
                0x0000930e                vApplicationMallocFailedHook

.text.NVMCTRL_Initialize%326
                0x00009320       0x10
 .text.NVMCTRL_Initialize
                0x00009320       0x10 build/Artemis_PDU/production/_ext/236948536/plib_nvmctrl.o
                0x00009320                NVMCTRL_Initialize

.text.SERCOM3_USART_ReceiverIsReady%327
                0x00009330       0x10
 .text.SERCOM3_USART_ReceiverIsReady
                0x00009330       0x10 build/Artemis_PDU/production/_ext/1679430495/plib_sercom3_usart.o
                0x00009330                SERCOM3_USART_ReceiverIsReady

.text.st_dword%328
                0x00009340       0x10
 .text.st_dword
                0x00009340       0x10 build/Artemis_PDU/production/_ext/401857885/ff.o

.rodata.LfnOfs%329
                0x00009350       0x10
 .rodata.LfnOfs
                0x00009350       0x10 build/Artemis_PDU/production/_ext/401857885/ff.o

.rodata.cst.8936%330
                0x00009360       0x10
 .rodata.cst.8936
                0x00009360       0x10 build/Artemis_PDU/production/_ext/401857885/ff.o

.rodata.cst32.8937%331
                0x00009370       0x10
 .rodata.cst32.8937
                0x00009370       0x10 build/Artemis_PDU/production/_ext/401857885/ff.o

.rodata.defopt.8938%332
                0x00009380       0x10
 .rodata.defopt.8938
                0x00009380       0x10 build/Artemis_PDU/production/_ext/401857885/ff.o

.text.disk_initialize%333
                0x00009390       0x10
 .text.disk_initialize
                0x00009390       0x10 build/Artemis_PDU/production/_ext/867183764/diskio.o
                0x00009390                disk_initialize

.rodata.drvSPI0PlibAPI%334
                0x000093a0       0x10
 .rodata.drvSPI0PlibAPI
                0x000093a0       0x10 build/Artemis_PDU/production/_ext/974488028/initialization.o
                0x000093a0                drvSPI0PlibAPI

.text._SYS_FS_Tasks%335
                0x000093b0       0x10
 .text._SYS_FS_Tasks
                0x000093b0       0x10 build/Artemis_PDU/production/_ext/974488028/tasks.o
                0x000093b0                _SYS_FS_Tasks

.text.vTaskSuspendAll%336
                0x000093c0       0x10
 .text.vTaskSuspendAll
                0x000093c0       0x10 build/Artemis_PDU/production/_ext/404212886/FreeRTOS_tasks.o
                0x000093c0                vTaskSuspendAll

.text.memset%337
                0x000093d0       0x10
 .text.memset   0x000093d0       0x10 c:/program files/microchip/xc32/v4.00/bin/bin/../../lib/gcc/pic32c/8.3.1/../../../../pic32c/lib/thumb/v7e-m+fp/hard\libc-musl.a(memset.o)
                0x000093d0                memset

.text.strlen%338
                0x000093e0       0x10
 .text.strlen   0x000093e0       0x10 c:/program files/microchip/xc32/v4.00/bin/bin/../../lib/gcc/pic32c/8.3.1/../../../../pic32c/lib/thumb/v7e-m+fp/hard\libc-musl.a(strlen.o)
                0x000093e0                strlen

.text.FATFS_eof%339
                0x000093f0        0xe
 .text.FATFS_eof
                0x000093f0        0xe build/Artemis_PDU/production/_ext/1111598889/sys_fs_fat_interface.o
                0x000093f0                FATFS_eof

.text.main%340  0x000093fe        0xe
 .text.main     0x000093fe        0xe build/Artemis_PDU/production/_ext/1360937237/main.o
                0x000093fe                main

.text._DRV_SDSPI_SPIBlockWrite%341
                0x000076b4        0xc
 .text._DRV_SDSPI_SPIBlockWrite
                0x000076b4        0xc build/Artemis_PDU/production/_ext/1760076532/drv_sdspi_driver_interface.o
                0x000076b4                _DRV_SDSPI_SPIBlockWrite

.text._DRV_SDSPI_SPIBlockRead%342
                0x0000940c        0xc
 .text._DRV_SDSPI_SPIBlockRead
                0x0000940c        0xc build/Artemis_PDU/production/_ext/1760076532/drv_sdspi_driver_interface.o
                0x0000940c                _DRV_SDSPI_SPIBlockRead

.text.RTC_Timer32CallbackRegister%343
                0x00009418        0xc
 .text.RTC_Timer32CallbackRegister
                0x00009418        0xc build/Artemis_PDU/production/_ext/659748505/plib_rtc_timer.o
                0x00009418                RTC_Timer32CallbackRegister

.text.SERCOM4_I2C_TransferDirGet%344
                0x00009424        0xc
 .text.SERCOM4_I2C_TransferDirGet
                0x00009424        0xc build/Artemis_PDU/production/_ext/835284660/plib_sercom4_i2c_slave.o
                0x00009424                SERCOM4_I2C_TransferDirGet

.text.SERCOM4_I2C_LastByteAckStatusGet%345
                0x00009430        0xc
 .text.SERCOM4_I2C_LastByteAckStatusGet
                0x00009430        0xc build/Artemis_PDU/production/_ext/835284660/plib_sercom4_i2c_slave.o
                0x00009430                SERCOM4_I2C_LastByteAckStatusGet

.text.SERCOM2_SPI_CallbackRegister%346
                0x0000943c        0xc
 .text.SERCOM2_SPI_CallbackRegister
                0x0000943c        0xc build/Artemis_PDU/production/_ext/796654533/plib_sercom2_spi_master.o
                0x0000943c                SERCOM2_SPI_CallbackRegister

.text.mem_set%347
                0x00009448        0xc
 .text.mem_set  0x00009448        0xc build/Artemis_PDU/production/_ext/401857885/ff.o

.text.SYS_FS_MEDIA_MANAGER_RegisterTransferHandler%348
                0x00009454        0xc
 .text.SYS_FS_MEDIA_MANAGER_RegisterTransferHandler
                0x00009454        0xc build/Artemis_PDU/production/_ext/1111598889/sys_fs_media_manager.o
                0x00009454                SYS_FS_MEDIA_MANAGER_RegisterTransferHandler

.text.FATFS_error%349
                0x00009460        0xc
 .text.FATFS_error
                0x00009460        0xc build/Artemis_PDU/production/_ext/1111598889/sys_fs_fat_interface.o
                0x00009460                FATFS_error

.text.vTaskMissedYield%350
                0x0000946c        0xc
 .text.vTaskMissedYield
                0x0000946c        0xc build/Artemis_PDU/production/_ext/404212886/FreeRTOS_tasks.o
                0x0000946c                vTaskMissedYield

.text.I2C_READ%351
                0x00009478        0xc
 .text.I2C_READ
                0x00009478        0xc build/Artemis_PDU/production/_ext/1360937237/app.o
                0x00009478                I2C_READ

.text.APP_Tasks%352
                0x00009484        0xc
 .text.APP_Tasks
                0x00009484        0xc build/Artemis_PDU/production/_ext/1360937237/app.o
                0x00009484                APP_Tasks

.text._DRV_SDSPI_SPIWrite%353
                0x00009490        0xa
 .text._DRV_SDSPI_SPIWrite
                0x00009490        0xa build/Artemis_PDU/production/_ext/1760076532/drv_sdspi_driver_interface.o
                0x00009490                _DRV_SDSPI_SPIWrite

.text._DRV_SDSPI_SPIRead%354
                0x0000949a        0xa
 .text._DRV_SDSPI_SPIRead
                0x0000949a        0xa build/Artemis_PDU/production/_ext/1760076532/drv_sdspi_driver_interface.o
                0x0000949a                _DRV_SDSPI_SPIRead

.text._DRV_SDSPI_SPIExclusiveAccess%355
                0x000094a4        0xa
 .text._DRV_SDSPI_SPIExclusiveAccess
                0x000094a4        0xa build/Artemis_PDU/production/_ext/1760076532/drv_sdspi_driver_interface.o
                0x000094a4                _DRV_SDSPI_SPIExclusiveAccess

.text.FATFS_read%356
                0x000094ae        0xa
 .text.FATFS_read
                0x000094ae        0xa build/Artemis_PDU/production/_ext/1111598889/sys_fs_fat_interface.o
                0x000094ae                FATFS_read

.text.FATFS_lseek%357
                0x000094b8        0xa
 .text.FATFS_lseek
                0x000094b8        0xa build/Artemis_PDU/production/_ext/1111598889/sys_fs_fat_interface.o
                0x000094b8                FATFS_lseek

.text.FATFS_gets%358
                0x000094c2        0xa
 .text.FATFS_gets
                0x000094c2        0xa build/Artemis_PDU/production/_ext/1111598889/sys_fs_fat_interface.o
                0x000094c2                FATFS_gets

.text.FATFS_write%359
                0x000094cc        0xa
 .text.FATFS_write
                0x000094cc        0xa build/Artemis_PDU/production/_ext/1111598889/sys_fs_fat_interface.o
                0x000094cc                FATFS_write

.text.FATFS_truncate%360
                0x000094d6        0xa
 .text.FATFS_truncate
                0x000094d6        0xa build/Artemis_PDU/production/_ext/1111598889/sys_fs_fat_interface.o
                0x000094d6                FATFS_truncate

.text.FATFS_sync%361
                0x000094e0        0xa
 .text.FATFS_sync
                0x000094e0        0xa build/Artemis_PDU/production/_ext/1111598889/sys_fs_fat_interface.o
                0x000094e0                FATFS_sync

.text.FATFS_putc%362
                0x000094ea        0xa
 .text.FATFS_putc
                0x000094ea        0xa build/Artemis_PDU/production/_ext/1111598889/sys_fs_fat_interface.o
                0x000094ea                FATFS_putc

.text.FATFS_puts%363
                0x000094f4        0xa
 .text.FATFS_puts
                0x000094f4        0xa build/Artemis_PDU/production/_ext/1111598889/sys_fs_fat_interface.o
                0x000094f4                FATFS_puts

.text.FATFS_printf%364
                0x000094fe        0xa
 .text.FATFS_printf
                0x000094fe        0xa build/Artemis_PDU/production/_ext/1111598889/sys_fs_fat_interface.o
                0x000094fe                FATFS_printf

.text.SYS_FS_Tasks%365
                0x00009508        0x8
 .text.SYS_FS_Tasks
                0x00009508        0x8 build/Artemis_PDU/production/_ext/1111598889/sys_fs.o
                0x00009508                SYS_FS_Tasks

.rodata.gPartitionTypeOffset%366
                0x00009510        0x8
 .rodata.gPartitionTypeOffset
                0x00009510        0x8 build/Artemis_PDU/production/_ext/1111598889/sys_fs_media_manager.o
                0x00009510                gPartitionTypeOffset

.text.FATFS_getlabel%367
                0x00009518        0x8
 .text.FATFS_getlabel
                0x00009518        0x8 build/Artemis_PDU/production/_ext/1111598889/sys_fs_fat_interface.o
                0x00009518                FATFS_getlabel

.text.FATFS_getcwd%368
                0x00009520        0x8
 .text.FATFS_getcwd
                0x00009520        0x8 build/Artemis_PDU/production/_ext/1111598889/sys_fs_fat_interface.o
                0x00009520                FATFS_getcwd

.text.FATFS_chdir%369
                0x00009528        0x8
 .text.FATFS_chdir
                0x00009528        0x8 build/Artemis_PDU/production/_ext/1111598889/sys_fs_fat_interface.o
                0x00009528                FATFS_chdir

.text.FATFS_mkdir%370
                0x00009530        0x8
 .text.FATFS_mkdir
                0x00009530        0x8 build/Artemis_PDU/production/_ext/1111598889/sys_fs_fat_interface.o
                0x00009530                FATFS_mkdir

.text.FATFS_unlink%371
                0x00009538        0x8
 .text.FATFS_unlink
                0x00009538        0x8 build/Artemis_PDU/production/_ext/1111598889/sys_fs_fat_interface.o
                0x00009538                FATFS_unlink

.text.FATFS_setlabel%372
                0x00009540        0x8
 .text.FATFS_setlabel
                0x00009540        0x8 build/Artemis_PDU/production/_ext/1111598889/sys_fs_fat_interface.o
                0x00009540                FATFS_setlabel

.text.FATFS_chmod%373
                0x00009548        0x8
 .text.FATFS_chmod
                0x00009548        0x8 build/Artemis_PDU/production/_ext/1111598889/sys_fs_fat_interface.o
                0x00009548                FATFS_chmod

.text.FATFS_utime%374
                0x00009550        0x8
 .text.FATFS_utime
                0x00009550        0x8 build/Artemis_PDU/production/_ext/1111598889/sys_fs_fat_interface.o
                0x00009550                FATFS_utime

.text.FATFS_rename%375
                0x00009558        0x8
 .text.FATFS_rename
                0x00009558        0x8 build/Artemis_PDU/production/_ext/1111598889/sys_fs_fat_interface.o
                0x00009558                FATFS_rename

.text.FATFS_fdisk%376
                0x00009560        0x8
 .text.FATFS_fdisk
                0x00009560        0x8 build/Artemis_PDU/production/_ext/1111598889/sys_fs_fat_interface.o
                0x00009560                FATFS_fdisk

.rodata.drvSPI0remapClockPhase%377
                0x00009568        0x8
 .rodata.drvSPI0remapClockPhase
                0x00009568        0x8 build/Artemis_PDU/production/_ext/974488028/initialization.o
                0x00009568                drvSPI0remapClockPhase

.rodata.drvSPI0remapClockPolarity%378
                0x00009570        0x8
 .rodata.drvSPI0remapClockPolarity
                0x00009570        0x8 build/Artemis_PDU/production/_ext/974488028/initialization.o
                0x00009570                drvSPI0remapClockPolarity

.rodata.sysFSInit%379
                0x00009578        0x8
 .rodata.sysFSInit
                0x00009578        0x8 build/Artemis_PDU/production/_ext/974488028/initialization.o
                0x00009578                sysFSInit

.rodata.sysTimeInitData%380
                0x00009580        0x8
 .rodata.sysTimeInitData
                0x00009580        0x8 build/Artemis_PDU/production/_ext/974488028/initialization.o
                0x00009580                sysTimeInitData

.text._APP_Tasks%381
                0x00009588        0x8
 .text._APP_Tasks
                0x00009588        0x8 build/Artemis_PDU/production/_ext/974488028/tasks.o
                0x00009588                _APP_Tasks

.rodata%382     0x00009590        0x8
 .rodata        0x00009590        0x8 build/Artemis_PDU/production/_ext/404212886/FreeRTOS_tasks.o

.text.DRV_SDSPI_TimerCallback%383
                0x00009598        0x6
 .text.DRV_SDSPI_TimerCallback
                0x00009598        0x6 build/Artemis_PDU/production/_ext/1760076532/drv_sdspi_driver_interface.o

.text.RTC_Timer32FrequencyGet%384
                0x0000959e        0x6
 .text.RTC_Timer32FrequencyGet
                0x0000959e        0x6 build/Artemis_PDU/production/_ext/659748505/plib_rtc_timer.o
                0x0000959e                RTC_Timer32FrequencyGet

.text.vListInitialiseItem%385
                0x000095a4        0x6
 .text.vListInitialiseItem
                0x000095a4        0x6 build/Artemis_PDU/production/_ext/404212886/list.o
                0x000095a4                vListInitialiseItem

.text.PORT_GroupSet%386
                0x000095aa        0x4
 .text.PORT_GroupSet
                0x000095aa        0x4 build/Artemis_PDU/production/_ext/1022696631/plib_port.o
                0x000095aa                PORT_GroupSet

.text.PORT_GroupClear%387
                0x000095ae        0x4
 .text.PORT_GroupClear
                0x000095ae        0x4 build/Artemis_PDU/production/_ext/1022696631/plib_port.o
                0x000095ae                PORT_GroupClear

.text.disk_status%388
                0x000095b2        0x4
 .text.disk_status
                0x000095b2        0x4 build/Artemis_PDU/production/_ext/867183764/diskio.o
                0x000095b2                disk_status

.text.FATFS_tell%389
                0x000095b6        0x4
 .text.FATFS_tell
                0x000095b6        0x4 build/Artemis_PDU/production/_ext/1111598889/sys_fs_fat_interface.o
                0x000095b6                FATFS_tell

.text.FATFS_size%390
                0x000095ba        0x4
 .text.FATFS_size
                0x000095ba        0x4 build/Artemis_PDU/production/_ext/1111598889/sys_fs_fat_interface.o
                0x000095ba                FATFS_size

.text%391       0x000095c0        0x4
 .text          0x000095c0        0x4 c:/program files/microchip/xc32/v4.00/bin/bin/../../lib/gcc/pic32c/8.3.1/thumb/v7e-m+fp/hard\libgcc.a(_dvmd_tls.o)
                0x000095c0                __aeabi_idiv0
                0x000095c0                __aeabi_ldiv0

.text.EVSYS_Initialize%392
                0x00003606        0x2
 .text.EVSYS_Initialize
                0x00003606        0x2 build/Artemis_PDU/production/_ext/1648773452/plib_evsys.o
                0x00003606                EVSYS_Initialize

.text.Dummy_Handler%393
                0x00003af2        0x2
 .text.Dummy_Handler
                0x00003af2        0x2 build/Artemis_PDU/production/_ext/974488028/interrupts.o
                0x00003af2                EIC_EXTINT_9_Handler
                0x00003af2                TCC0_MC5_Handler
                0x00003af2                SERCOM0_2_Handler
                0x00003af2                USB_SOF_HSOF_Handler
                0x00003af2                TCC4_OTHER_Handler
                0x00003af2                TCC2_MC2_Handler
                0x00003af2                EVSYS_0_Handler
                0x00003af2                TRNG_Handler
                0x00003af2                TC2_Handler
                0x00003af2                USB_TRCPT0_Handler
                0x00003af2                DAC_OTHER_Handler
                0x00003af2                AC_Handler
                0x00003af2                DAC_EMPTY_0_Handler
                0x00003af2                DMAC_OTHER_Handler
                0x00003af2                EIC_EXTINT_5_Handler
                0x00003af2                SERCOM3_1_Handler
                0x00003af2                SERCOM3_2_Handler
                0x00003af2                EIC_EXTINT_6_Handler
                0x00003af2                TC7_Handler
                0x00003af2                TCC4_MC0_Handler
                0x00003af2                EVSYS_3_Handler
                0x00003af2                QSPI_Handler
                0x00003af2                TCC2_MC0_Handler
                0x00003af2                PDEC_OTHER_Handler
                0x00003af2                TCC3_MC0_Handler
                0x00003af2                PDEC_MC1_Handler
                0x00003af2                TCC2_MC1_Handler
                0x00003af2                OSCCTRL_XOSC1_Handler
                0x00003af2                PDEC_MC0_Handler
                0x00003af2                EIC_EXTINT_4_Handler
                0x00003af2                EIC_EXTINT_7_Handler
                0x00003af2                SERCOM0_OTHER_Handler
                0x00003af2                EVSYS_OTHER_Handler
                0x00003af2                SERCOM0_0_Handler
                0x00003af2                TCC1_MC0_Handler
                0x00003af2                SERCOM1_OTHER_Handler
                0x00003af2                TCC2_OTHER_Handler
                0x00003af2                EIC_EXTINT_11_Handler
                0x00003af2                SUPC_BODDET_Handler
                0x00003af2                EIC_EXTINT_14_Handler
                0x00003af2                OSC32KCTRL_Handler
                0x00003af2                SERCOM6_2_Handler
                0x00003af2                EVSYS_1_Handler
                0x00003af2                TC6_Handler
                0x00003af2                TCC4_MC1_Handler
                0x00003af2                DMAC_0_Handler
                0x00003af2                SUPC_OTHER_Handler
                0x00003af2                WDT_Handler
                0x00003af2                CAN0_Handler
                0x00003af2                EIC_EXTINT_15_Handler
                0x00003af2                SERCOM6_0_Handler
                0x00003af2                EIC_EXTINT_1_Handler
                0x00003af2                TCC3_MC1_Handler
                0x00003af2                SERCOM5_0_Handler
                0x00003af2                TC4_Handler
                0x00003af2                TC1_Handler
                0x00003af2                TCC1_MC1_Handler
                0x00003af2                EIC_EXTINT_0_Handler
                0x00003af2                TCC1_OTHER_Handler
                0x00003af2                PAC_Handler
                0x00003af2                TC3_Handler
                0x00003af2                Dummy_Handler
                0x00003af2                DAC_RESRDY_0_Handler
                0x00003af2                SERCOM5_1_Handler
                0x00003af2                DMAC_2_Handler
                0x00003af2                TCC0_MC4_Handler
                0x00003af2                USB_TRCPT1_Handler
                0x00003af2                SERCOM0_1_Handler
                0x00003af2                TCC0_MC3_Handler
                0x00003af2                EIC_EXTINT_12_Handler
                0x00003af2                OSCCTRL_DPLL0_Handler
                0x00003af2                SERCOM6_OTHER_Handler
                0x00003af2                SERCOM7_1_Handler
                0x00003af2                SERCOM5_OTHER_Handler
                0x00003af2                PM_Handler
                0x00003af2                OSCCTRL_DFLL_Handler
                0x00003af2                SERCOM7_0_Handler
                0x00003af2                DAC_RESRDY_1_Handler
                0x00003af2                DMAC_1_Handler
                0x00003af2                USB_OTHER_Handler
                0x00003af2                SERCOM7_2_Handler
                0x00003af2                CAN1_Handler
                0x00003af2                TCC0_OTHER_Handler
                0x00003af2                EIC_EXTINT_10_Handler
                0x00003af2                TCC1_MC3_Handler
                0x00003af2                OSCCTRL_XOSC0_Handler
                0x00003af2                SERCOM6_1_Handler
                0x00003af2                TCC0_MC0_Handler
                0x00003af2                EIC_EXTINT_2_Handler
                0x00003af2                SDHC0_Handler
                0x00003af2                SERCOM1_1_Handler
                0x00003af2                I2S_Handler
                0x00003af2                PCC_Handler
                0x00003af2                TCC3_OTHER_Handler
                0x00003af2                EIC_EXTINT_13_Handler
                0x00003af2                SERCOM1_0_Handler
                0x00003af2                PUKCC_Handler
                0x00003af2                SERCOM1_2_Handler
                0x00003af2                SERCOM3_0_Handler
                0x00003af2                TCC1_MC2_Handler
                0x00003af2                ADC1_RESRDY_Handler
                0x00003af2                NVMCTRL_1_Handler
                0x00003af2                SERCOM5_2_Handler
                0x00003af2                DAC_EMPTY_1_Handler
                0x00003af2                ADC1_OTHER_Handler
                0x00003af2                OSCCTRL_DPLL1_Handler
                0x00003af2                EIC_EXTINT_3_Handler
                0x00003af2                SERCOM3_OTHER_Handler
                0x00003af2                EIC_EXTINT_8_Handler
                0x00003af2                NVMCTRL_0_Handler
                0x00003af2                ADC0_RESRDY_Handler
                0x00003af2                ADC0_OTHER_Handler
                0x00003af2                MCLK_Handler
                0x00003af2                SERCOM7_OTHER_Handler
                0x00003af2                EVSYS_2_Handler
                0x00003af2                FREQM_Handler
                0x00003af2                TC0_Handler
                0x00003af2                TCC0_MC1_Handler
                0x00003af2                DMAC_3_Handler
                0x00003af2                RAMECC_Handler
                0x00003af2                TC5_Handler
                0x00003af2                AES_Handler
                0x00003af2                ICM_Handler
                0x00003af2                TCC0_MC2_Handler

.text.NonMaskableInt_Handler%394
                0x00004dd6        0x2
 .text.NonMaskableInt_Handler
                0x00004dd6        0x2 build/Artemis_PDU/production/_ext/974488028/exceptions.o
                0x00004dd6                NonMaskableInt_Handler

.text.HardFault_Handler%395
                0x00005eaa        0x2
 .text.HardFault_Handler
                0x00005eaa        0x2 build/Artemis_PDU/production/_ext/974488028/exceptions.o
                0x00005eaa                HardFault_Handler

.text.DebugMonitor_Handler%396
                0x00006572        0x2
 .text.DebugMonitor_Handler
                0x00006572        0x2 build/Artemis_PDU/production/_ext/974488028/exceptions.o
                0x00006572                DebugMonitor_Handler

.text.MemoryManagement_Handler%397
                0x0000726e        0x2
 .text.MemoryManagement_Handler
                0x0000726e        0x2 build/Artemis_PDU/production/_ext/974488028/exceptions.o
                0x0000726e                MemoryManagement_Handler

.text.BusFault_Handler%398
                0x0000790e        0x2
 .text.BusFault_Handler
                0x0000790e        0x2 build/Artemis_PDU/production/_ext/974488028/exceptions.o
                0x0000790e                BusFault_Handler

.text.UsageFault_Handler%399
                0x00007d56        0x2
 .text.UsageFault_Handler
                0x00007d56        0x2 build/Artemis_PDU/production/_ext/974488028/exceptions.o
                0x00007d56                UsageFault_Handler

.text.Dummy_App_Func%400
                0x00007f9e        0x2
 .text.Dummy_App_Func
                0x00007f9e        0x2 build/Artemis_PDU/production/_ext/974488028/startup_xc32.o
                0x00007f9e                _on_reset
                0x00007f9e                _on_bootstrap
                0x00007f9e                __xc32_on_reset
                0x00007f9e                Dummy_App_Func
                0x00007f9e                __xc32_on_bootstrap

.text.vPortFree%401
                0x000081e6        0x2
 .text.vPortFree
                0x000081e6        0x2 build/Artemis_PDU/production/_ext/1665200909/heap_1.o
                0x000081e6                vPortFree

.text.__dummy%402
                0x00008962        0x2
 .text.__dummy  0x00008962        0x2 c:/program files/microchip/xc32/v4.00/bin/bin/../../lib/gcc/pic32c/8.3.1/../../../../pic32c/lib/thumb/v7e-m+fp/hard\libc-musl.a(__libc_start_main.o)
                0x00008962                __init_stdio
                0x00008962                __init_host
